

Microchip MPLAB XC8 Assembler V2.41 build 20230208172133 
                                                                                               Mon Jun 05 16:22:51 2023

Microchip MPLAB XC8 C Compiler v2.41 (Free license) build 20230208172133 Og1 
     1                           	processor	16F877A
     2                           	pagewidth 120
     3                           	opt	flic
     4                           	psect	idataBANK0,global,class=CODE,delta=2,noexec
     5                           	psect	idataBANK1,global,class=CODE,delta=2,noexec
     6                           	psect	strings,global,class=STRING,delta=2,noexec
     7                           	psect	stringtext,global,reloc=256,class=STRCODE,delta=2,noexec
     8                           	psect	cinit,global,class=CODE,merge=1,delta=2
     9                           	psect	dataBANK0,global,class=BANK0,space=1,delta=1,noexec
    10                           	psect	dataBANK1,global,class=BANK1,space=1,delta=1,noexec
    11                           	psect	inittext,global,class=CODE,delta=2
    12                           	psect	cstackCOMMON,global,class=COMMON,space=1,delta=1,noexec
    13                           	psect	cstackBANK0,global,class=BANK0,space=1,delta=1,noexec
    14                           	psect	maintext,global,class=CODE,split=1,delta=2
    15                           	psect	text1,local,class=CODE,merge=1,delta=2
    16                           	psect	text2,local,class=CODE,merge=1,delta=2
    17                           	psect	text3,local,class=CODE,merge=1,delta=2
    18                           	psect	text4,local,class=CODE,merge=1,delta=2
    19                           	psect	text5,local,class=CODE,merge=1,delta=2
    20                           	psect	text6,local,class=CODE,merge=1,delta=2,group=1
    21                           	psect	text7,local,class=CODE,merge=1,delta=2
    22                           	psect	text8,local,class=CODE,merge=1,delta=2
    23                           	psect	text9,local,class=CODE,merge=1,delta=2
    24                           	psect	text10,local,class=CODE,merge=1,delta=2
    25                           	psect	text11,local,class=CODE,merge=1,delta=2
    26                           	psect	text12,local,class=CODE,merge=1,delta=2
    27                           	psect	text13,local,class=CODE,merge=1,delta=2
    28                           	psect	text14,local,class=CODE,merge=1,delta=2
    29                           	psect	text15,local,class=CODE,merge=1,delta=2
    30                           	psect	text16,local,class=CODE,merge=1,delta=2
    31                           	psect	text17,local,class=CODE,merge=1,delta=2
    32                           	psect	text18,local,class=CODE,merge=1,delta=2
    33                           	psect	text19,local,class=CODE,merge=1,delta=2
    34                           	psect	text20,local,class=CODE,merge=1,delta=2
    35                           	psect	text21,local,class=CODE,merge=1,delta=2
    36                           	psect	text22,local,class=CODE,merge=1,delta=2
    37                           	psect	text23,local,class=CODE,merge=1,delta=2
    38                           	psect	text24,local,class=CODE,merge=1,delta=2
    39                           	psect	text25,local,class=CODE,merge=1,delta=2
    40                           	psect	text26,local,class=CODE,merge=1,delta=2
    41                           	psect	text27,local,class=CODE,merge=1,delta=2
    42                           	psect	text28,local,class=CODE,merge=1,delta=2
    43                           	psect	text29,local,class=CODE,merge=1,delta=2
    44                           	psect	text30,local,class=CODE,merge=1,delta=2
    45                           	psect	text31,local,class=CODE,merge=1,delta=2
    46                           	psect	text32,local,class=CODE,merge=1,delta=2
    47                           	psect	text33,local,class=CODE,merge=1,delta=2
    48                           	psect	text34,local,class=CODE,merge=1,delta=2
    49                           	psect	text35,local,class=CODE,merge=1,delta=2
    50                           	psect	text36,local,class=CODE,merge=1,delta=2
    51                           	psect	text37,local,class=CODE,merge=1,delta=2
    52                           	psect	text38,local,class=CODE,merge=1,delta=2
    53                           	psect	config,global,abs,ovrld,class=CONFIG,space=4,delta=2,noexec
    54                           	dabs	1,0x7E,2
    55     0000                     
    56                           ; Generated 09/02/2023 GMT
    57                           ; 
    58                           ; Copyright © 2023, Microchip Technology Inc. and its subsidiaries ("Microchip")
    59                           ; All rights reserved.
    60                           ; 
    61                           ; This software is developed by Microchip Technology Inc. and its subsidiaries ("Microch
      +                          ip").
    62                           ; 
    63                           ; Redistribution and use in source and binary forms, with or without modification, are
    64                           ; permitted provided that the following conditions are met:
    65                           ; 
    66                           ;     1. Redistributions of source code must retain the above copyright notice, this lis
      +                          t of
    67                           ;        conditions and the following disclaimer.
    68                           ; 
    69                           ;     2. Redistributions in binary form must reproduce the above copyright notice, this 
      +                          list
    70                           ;        of conditions and the following disclaimer in the documentation and/or other
    71                           ;        materials provided with the distribution. Publication is not required when
    72                           ;        this file is used in an embedded application.
    73                           ; 
    74                           ;     3. Microchip's name may not be used to endorse or promote products derived from th
      +                          is
    75                           ;        software without specific prior written permission.
    76                           ; 
    77                           ; THIS SOFTWARE IS PROVIDED BY MICROCHIP "AS IS" AND ANY EXPRESS OR IMPLIED WARRANTIES,
    78                           ; INCLUDING, BUT NOT LIMITED TO, THE IMPLIED WARRANTIES OF MERCHANTABILITY AND FITNESS F
      +                          OR
    79                           ; PURPOSE ARE DISCLAIMED.  IN NO EVENT SHALL MICROCHIP BE LIABLE FOR ANY DIRECT, INDIREC
      +                          T,
    80                           ; INCIDENTAL, SPECIAL, EXEMPLARY, OR CONSEQUENTIAL DAMAGES (INCLUDING BUT NOT LIMITED TO
    81                           ; PROCUREMENT OF SUBSTITUTE GOODS OR SERVICES; LOSS OF USE, DATA OR PROFITS; OR BUSINESS
    82                           ; INTERRUPTION) HOWSOEVER CAUSED AND ON ANY THEORY OF LIABILITY, WHETHER IN CONTRACT, ST
      +                          RICT
    83                           ; LIABILITY, OR TORT (INCLUDING NEGLIGENCE OR OTHERWISE) ARISING IN ANY WAY OUT OF THE U
      +                          SE OF
    84                           ; THIS SOFTWARE, EVEN IF ADVISED OF THE POSSIBILITY OF SUCH DAMAGE.
    85                           ; 
    86                           ; 
    87                           ; Code-generator required, PIC16F877A Definitions
    88                           ; 
    89                           ; SFR Addresses
    90     0000                     	;# 
    91     0001                     	;# 
    92     0002                     	;# 
    93     0003                     	;# 
    94     0004                     	;# 
    95     0005                     	;# 
    96     0006                     	;# 
    97     0007                     	;# 
    98     0008                     	;# 
    99     0009                     	;# 
   100     000A                     	;# 
   101     000B                     	;# 
   102     000C                     	;# 
   103     000D                     	;# 
   104     000E                     	;# 
   105     000E                     	;# 
   106     000F                     	;# 
   107     0010                     	;# 
   108     0011                     	;# 
   109     0012                     	;# 
   110     0013                     	;# 
   111     0014                     	;# 
   112     0015                     	;# 
   113     0015                     	;# 
   114     0016                     	;# 
   115     0017                     	;# 
   116     0018                     	;# 
   117     0019                     	;# 
   118     001A                     	;# 
   119     001B                     	;# 
   120     001B                     	;# 
   121     001C                     	;# 
   122     001D                     	;# 
   123     001E                     	;# 
   124     001F                     	;# 
   125     0081                     	;# 
   126     0085                     	;# 
   127     0086                     	;# 
   128     0087                     	;# 
   129     0088                     	;# 
   130     0089                     	;# 
   131     008C                     	;# 
   132     008D                     	;# 
   133     008E                     	;# 
   134     0091                     	;# 
   135     0092                     	;# 
   136     0093                     	;# 
   137     0094                     	;# 
   138     0098                     	;# 
   139     0099                     	;# 
   140     009C                     	;# 
   141     009D                     	;# 
   142     009E                     	;# 
   143     009F                     	;# 
   144     010C                     	;# 
   145     010D                     	;# 
   146     010E                     	;# 
   147     010F                     	;# 
   148     018C                     	;# 
   149     018D                     	;# 
   150     0000                     	;# 
   151     0001                     	;# 
   152     0002                     	;# 
   153     0003                     	;# 
   154     0004                     	;# 
   155     0005                     	;# 
   156     0006                     	;# 
   157     0007                     	;# 
   158     0008                     	;# 
   159     0009                     	;# 
   160     000A                     	;# 
   161     000B                     	;# 
   162     000C                     	;# 
   163     000D                     	;# 
   164     000E                     	;# 
   165     000E                     	;# 
   166     000F                     	;# 
   167     0010                     	;# 
   168     0011                     	;# 
   169     0012                     	;# 
   170     0013                     	;# 
   171     0014                     	;# 
   172     0015                     	;# 
   173     0015                     	;# 
   174     0016                     	;# 
   175     0017                     	;# 
   176     0018                     	;# 
   177     0019                     	;# 
   178     001A                     	;# 
   179     001B                     	;# 
   180     001B                     	;# 
   181     001C                     	;# 
   182     001D                     	;# 
   183     001E                     	;# 
   184     001F                     	;# 
   185     0081                     	;# 
   186     0085                     	;# 
   187     0086                     	;# 
   188     0087                     	;# 
   189     0088                     	;# 
   190     0089                     	;# 
   191     008C                     	;# 
   192     008D                     	;# 
   193     008E                     	;# 
   194     0091                     	;# 
   195     0092                     	;# 
   196     0093                     	;# 
   197     0094                     	;# 
   198     0098                     	;# 
   199     0099                     	;# 
   200     009C                     	;# 
   201     009D                     	;# 
   202     009E                     	;# 
   203     009F                     	;# 
   204     010C                     	;# 
   205     010D                     	;# 
   206     010E                     	;# 
   207     010F                     	;# 
   208     018C                     	;# 
   209     018D                     	;# 
   210                           
   211                           	psect	idataBANK0
   212     097A                     __pidataBANK0:
   213                           
   214                           ;initializer for lenh_mocua_matkhau@F1281
   215     097A  3430               	retlw	48
   216     097B  3430               	retlw	48
   217     097C  3430               	retlw	48
   218     097D  3430               	retlw	48
   219     097E  3430               	retlw	48
   220     097F  3430               	retlw	48
   221                           
   222                           ;initializer for _mk
   223     0980  3430               	retlw	48
   224     0981  3430               	retlw	48
   225     0982  3430               	retlw	48
   226     0983  3430               	retlw	48
   227     0984  3430               	retlw	48
   228     0985  3430               	retlw	48
   229                           
   230                           	psect	idataBANK1
   231     096E                     __pidataBANK1:
   232                           
   233                           ;initializer for lenh_doipass@F1304
   234     096E  3430               	retlw	48
   235     096F  3430               	retlw	48
   236     0970  3430               	retlw	48
   237     0971  3430               	retlw	48
   238     0972  3430               	retlw	48
   239     0973  3430               	retlw	48
   240                           
   241                           ;initializer for lenh_themthe@F1288
   242     0974  3430               	retlw	48
   243     0975  3430               	retlw	48
   244     0976  3430               	retlw	48
   245     0977  3430               	retlw	48
   246     0978  3430               	retlw	48
   247     0979  3430               	retlw	48
   248     000D                     _PIR2bits	set	13
   249     000B                     _INTCONbits	set	11
   250     0005                     _PORTAbits	set	5
   251     0006                     _PORTB	set	6
   252     0008                     _PORTD	set	8
   253     0008                     _PORTDbits	set	8
   254     003C                     _RC4	set	60
   255     003B                     _RC3	set	59
   256     003A                     _RC2	set	58
   257     0038                     _RC0	set	56
   258     0039                     _RC1	set	57
   259     0037                     _RB7	set	55
   260     0036                     _RB6	set	54
   261     0035                     _RB5	set	53
   262     0034                     _RB4	set	52
   263     0033                     _RB3	set	51
   264     0032                     _RB2	set	50
   265     0031                     _RB1	set	49
   266     0030                     _RB0	set	48
   267     0085                     _TRISA	set	133
   268     0088                     _TRISD	set	136
   269     0087                     _TRISCbits	set	135
   270     0081                     _OPTION_REG	set	129
   271     0086                     _TRISB	set	134
   272     010C                     _EEDATA	set	268
   273     010D                     _EEADR	set	269
   274     018D                     _EECON2	set	397
   275     018C                     _EECON1bits	set	396
   276                           
   277                           	psect	strings
   278     0950                     __pstrings:
   279     0950                     stringtab:
   280     0950                     __stringtab:
   281                           
   282                           ;	String table - string pointers are 2 bytes each
   283     0950  1BFF               	btfsc	btemp+1,7
   284     0951  295A               	ljmp	stringcode
   285     0952  1383               	bcf	3,7
   286     0953  187F               	btfsc	btemp+1,0
   287     0954  1783               	bsf	3,7
   288     0955  0800               	movf	0,w
   289     0956  0A84               	incf	4,f
   290     0957  1903               	skipnz
   291     0958  0AFF               	incf	btemp+1,f
   292     0959  0008               	return
   293     095A                     stringcode:
   294     095A  087F               	movf	btemp+1,w
   295     095B  397F               	andlw	127
   296     095C  008A               	movwf	10
   297     095D  0804               	movf	4,w
   298     095E  0A84               	incf	4,f
   299     095F  1903               	skipnz
   300     0960  0AFF               	incf	btemp+1,f
   301     0961  0082               	movwf	2
   302     0962                     __stringbase:
   303     0962                     __end_of__stringtab:
   304                           
   305                           	psect	stringtext
   306     0800                     __pstringtext:
   307     0800                     STR_19:
   308     0800  344D               	retlw	77	;'M'
   309     0801  3461               	retlw	97	;'a'
   310     0802  3474               	retlw	116	;'t'
   311     0803  3420               	retlw	32	;' '
   312     0804  346B               	retlw	107	;'k'
   313     0805  3468               	retlw	104	;'h'
   314     0806  3461               	retlw	97	;'a'
   315     0807  3475               	retlw	117	;'u'
   316     0808  3420               	retlw	32	;' '
   317     0809  3464               	retlw	100	;'d'
   318     080A  3461               	retlw	97	;'a'
   319     080B  3420               	retlw	32	;' '
   320     080C  3464               	retlw	100	;'d'
   321     080D  3475               	retlw	117	;'u'
   322     080E  346F               	retlw	111	;'o'
   323     080F  3463               	retlw	99	;'c'
   324     0810  3420               	retlw	32	;' '
   325     0811  3464               	retlw	100	;'d'
   326     0812  346F               	retlw	111	;'o'
   327     0813  3469               	retlw	105	;'i'
   328     0814  3400               	retlw	0
   329     0815                     STR_9:
   330     0815  3454               	retlw	84	;'T'
   331     0816  3468               	retlw	104	;'h'
   332     0817  3465               	retlw	101	;'e'
   333     0818  346D               	retlw	109	;'m'
   334     0819  3420               	retlw	32	;' '
   335     081A  3474               	retlw	116	;'t'
   336     081B  3468               	retlw	104	;'h'
   337     081C  3465               	retlw	101	;'e'
   338     081D  3420               	retlw	32	;' '
   339     081E  3473               	retlw	115	;'s'
   340     081F  346F               	retlw	111	;'o'
   341     0820  3420               	retlw	32	;' '
   342     0821  343F               	retlw	63	;'?'
   343     0822  3420               	retlw	32	;' '
   344     0823  3430               	retlw	48	;'0'
   345     0824  3420               	retlw	32	;' '
   346     0825  342D               	retlw	45	;'-'
   347     0826  3420               	retlw	32	;' '
   348     0827  3439               	retlw	57	;'9'
   349     0828  3400               	retlw	0
   350     0829                     STR_23:
   351     0829  344E               	retlw	78	;'N'
   352     082A  3468               	retlw	104	;'h'
   353     082B  3461               	retlw	97	;'a'
   354     082C  346E               	retlw	110	;'n'
   355     082D  3470               	retlw	112	;'p'
   356     082E  3468               	retlw	104	;'h'
   357     082F  3469               	retlw	105	;'i'
   358     0830  346D               	retlw	109	;'m'
   359     0831  3420               	retlw	32	;' '
   360     0832  3444               	retlw	68	;'D'
   361     0833  3423               	retlw	35	;'#'
   362     0834  3454               	retlw	84	;'T'
   363     0835  3448               	retlw	72	;'H'
   364     0836  3441               	retlw	65	;'A'
   365     0837  3459               	retlw	89	;'Y'
   366     0838  3450               	retlw	80	;'P'
   367     0839  3441               	retlw	65	;'A'
   368     083A  3453               	retlw	83	;'S'
   369     083B  3453               	retlw	83	;'S'
   370     083C  3400               	retlw	0
   371     083D                     STR_12:
   372     083D  3454               	retlw	84	;'T'
   373     083E  3468               	retlw	104	;'h'
   374     083F  3465               	retlw	101	;'e'
   375     0840  346D               	retlw	109	;'m'
   376     0841  3420               	retlw	32	;' '
   377     0842  3474               	retlw	116	;'t'
   378     0843  3468               	retlw	104	;'h'
   379     0844  3465               	retlw	101	;'e'
   380     0845  3420               	retlw	32	;' '
   381     0846  3474               	retlw	116	;'t'
   382     0847  3468               	retlw	104	;'h'
   383     0848  3461               	retlw	97	;'a'
   384     0849  346E               	retlw	110	;'n'
   385     084A  3468               	retlw	104	;'h'
   386     084B  3420               	retlw	32	;' '
   387     084C  3463               	retlw	99	;'c'
   388     084D  346F               	retlw	111	;'o'
   389     084E  346E               	retlw	110	;'n'
   390     084F  3467               	retlw	103	;'g'
   391     0850  3400               	retlw	0
   392     0851                     STR_21:
   393     0851  344E               	retlw	78	;'N'
   394     0852  3468               	retlw	104	;'h'
   395     0853  3461               	retlw	97	;'a'
   396     0854  346E               	retlw	110	;'n'
   397     0855  3470               	retlw	112	;'p'
   398     0856  3468               	retlw	104	;'h'
   399     0857  3469               	retlw	105	;'i'
   400     0858  346D               	retlw	109	;'m'
   401     0859  3420               	retlw	32	;' '
   402     085A  3442               	retlw	66	;'B'
   403     085B  3423               	retlw	35	;'#'
   404     085C  3454               	retlw	84	;'T'
   405     085D  3448               	retlw	72	;'H'
   406     085E  3445               	retlw	69	;'E'
   407     085F  344D               	retlw	77	;'M'
   408     0860  3454               	retlw	84	;'T'
   409     0861  3448               	retlw	72	;'H'
   410     0862  3445               	retlw	69	;'E'
   411     0863  3400               	retlw	0
   412     0864                     STR_3:
   413     0864  3420               	retlw	32	;' '
   414     0865  3443               	retlw	67	;'C'
   415     0866  3475               	retlw	117	;'u'
   416     0867  3461               	retlw	97	;'a'
   417     0868  3420               	retlw	32	;' '
   418     0869  3473               	retlw	115	;'s'
   419     086A  3465               	retlw	101	;'e'
   420     086B  3420               	retlw	32	;' '
   421     086C  3464               	retlw	100	;'d'
   422     086D  346F               	retlw	111	;'o'
   423     086E  346E               	retlw	110	;'n'
   424     086F  3467               	retlw	103	;'g'
   425     0870  3420               	retlw	32	;' '
   426     0871  3474               	retlw	116	;'t'
   427     0872  3472               	retlw	114	;'r'
   428     0873  346F               	retlw	111	;'o'
   429     0874  346E               	retlw	110	;'n'
   430     0875  3467               	retlw	103	;'g'
   431     0876  3400               	retlw	0
   432     0877                     STR_22:
   433     0877  344E               	retlw	78	;'N'
   434     0878  3468               	retlw	104	;'h'
   435     0879  3461               	retlw	97	;'a'
   436     087A  346E               	retlw	110	;'n'
   437     087B  3470               	retlw	112	;'p'
   438     087C  3468               	retlw	104	;'h'
   439     087D  3469               	retlw	105	;'i'
   440     087E  346D               	retlw	109	;'m'
   441     087F  3420               	retlw	32	;' '
   442     0880  3443               	retlw	67	;'C'
   443     0881  3423               	retlw	35	;'#'
   444     0882  3458               	retlw	88	;'X'
   445     0883  344F               	retlw	79	;'O'
   446     0884  3441               	retlw	65	;'A'
   447     0885  3454               	retlw	84	;'T'
   448     0886  3448               	retlw	72	;'H'
   449     0887  3445               	retlw	69	;'E'
   450     0888  3400               	retlw	0
   451     0889                     STR_24:
   452     0889  3441               	retlw	65	;'A'
   453     088A  3420               	retlw	32	;' '
   454     088B  346D               	retlw	109	;'m'
   455     088C  346F               	retlw	111	;'o'
   456     088D  3420               	retlw	32	;' '
   457     088E  3463               	retlw	99	;'c'
   458     088F  3475               	retlw	117	;'u'
   459     0890  3461               	retlw	97	;'a'
   460     0891  3420               	retlw	32	;' '
   461     0892  3471               	retlw	113	;'q'
   462     0893  3475               	retlw	117	;'u'
   463     0894  3465               	retlw	101	;'e'
   464     0895  3474               	retlw	116	;'t'
   465     0896  3420               	retlw	32	;' '
   466     0897  3474               	retlw	116	;'t'
   467     0898  3468               	retlw	104	;'h'
   468     0899  3465               	retlw	101	;'e'
   469     089A  3400               	retlw	0
   470     089B                     STR_20:
   471     089B  344E               	retlw	78	;'N'
   472     089C  3468               	retlw	104	;'h'
   473     089D  3461               	retlw	97	;'a'
   474     089E  346E               	retlw	110	;'n'
   475     089F  3470               	retlw	112	;'p'
   476     08A0  3468               	retlw	104	;'h'
   477     08A1  3469               	retlw	105	;'i'
   478     08A2  346D               	retlw	109	;'m'
   479     08A3  3420               	retlw	32	;' '
   480     08A4  3441               	retlw	65	;'A'
   481     08A5  3423               	retlw	35	;'#'
   482     08A6  344D               	retlw	77	;'M'
   483     08A7  344F               	retlw	79	;'O'
   484     08A8  3443               	retlw	67	;'C'
   485     08A9  3455               	retlw	85	;'U'
   486     08AA  3441               	retlw	65	;'A'
   487     08AB  3400               	retlw	0
   488     08AC                     STR_5:
   489     08AC  3458               	retlw	88	;'X'
   490     08AD  3469               	retlw	105	;'i'
   491     08AE  346E               	retlw	110	;'n'
   492     08AF  3420               	retlw	32	;' '
   493     08B0  346D               	retlw	109	;'m'
   494     08B1  346F               	retlw	111	;'o'
   495     08B2  3469               	retlw	105	;'i'
   496     08B3  3420               	retlw	32	;' '
   497     08B4  3471               	retlw	113	;'q'
   498     08B5  3475               	retlw	117	;'u'
   499     08B6  3465               	retlw	101	;'e'
   500     08B7  3474               	retlw	116	;'t'
   501     08B8  3420               	retlw	32	;' '
   502     08B9  3474               	retlw	116	;'t'
   503     08BA  3468               	retlw	104	;'h'
   504     08BB  3465               	retlw	101	;'e'
   505     08BC  3400               	retlw	0
   506     08BD                     STR_15:
   507     08BD  344D               	retlw	77	;'M'
   508     08BE  3461               	retlw	97	;'a'
   509     08BF  3474               	retlw	116	;'t'
   510     08C0  344B               	retlw	75	;'K'
   511     08C1  3468               	retlw	104	;'h'
   512     08C2  3461               	retlw	97	;'a'
   513     08C3  3475               	retlw	117	;'u'
   514     08C4  3420               	retlw	32	;' '
   515     08C5  3467               	retlw	103	;'g'
   516     08C6  346F               	retlw	111	;'o'
   517     08C7  346D               	retlw	109	;'m'
   518     08C8  3420               	retlw	32	;' '
   519     08C9  3436               	retlw	54	;'6'
   520     08CA  3420               	retlw	32	;' '
   521     08CB  3473               	retlw	115	;'s'
   522     08CC  346F               	retlw	111	;'o'
   523     08CD  3400               	retlw	0
   524     08CE                     STR_25:
   525     08CE  3442               	retlw	66	;'B'
   526     08CF  3420               	retlw	32	;' '
   527     08D0  346E               	retlw	110	;'n'
   528     08D1  3468               	retlw	104	;'h'
   529     08D2  3461               	retlw	97	;'a'
   530     08D3  3470               	retlw	112	;'p'
   531     08D4  3420               	retlw	32	;' '
   532     08D5  346D               	retlw	109	;'m'
   533     08D6  3461               	retlw	97	;'a'
   534     08D7  3474               	retlw	116	;'t'
   535     08D8  3420               	retlw	32	;' '
   536     08D9  346B               	retlw	107	;'k'
   537     08DA  3468               	retlw	104	;'h'
   538     08DB  3461               	retlw	97	;'a'
   539     08DC  3475               	retlw	117	;'u'
   540     08DD  3400               	retlw	0
   541     08DE                     STR_10:
   542     08DE  3454               	retlw	84	;'T'
   543     08DF  3468               	retlw	104	;'h'
   544     08E0  3465               	retlw	101	;'e'
   545     08E1  3420               	retlw	32	;' '
   546     08E2  3464               	retlw	100	;'d'
   547     08E3  3461               	retlw	97	;'a'
   548     08E4  3420               	retlw	32	;' '
   549     08E5  3474               	retlw	116	;'t'
   550     08E6  346F               	retlw	111	;'o'
   551     08E7  346E               	retlw	110	;'n'
   552     08E8  3420               	retlw	32	;' '
   553     08E9  3474               	retlw	116	;'t'
   554     08EA  3461               	retlw	97	;'a'
   555     08EB  3469               	retlw	105	;'i'
   556     08EC  3400               	retlw	0
   557     08ED                     STR_16:
   558     08ED  3420               	retlw	32	;' '
   559     08EE  344E               	retlw	78	;'N'
   560     08EF  3468               	retlw	104	;'h'
   561     08F0  3461               	retlw	97	;'a'
   562     08F1  3470               	retlw	112	;'p'
   563     08F2  3420               	retlw	32	;' '
   564     08F3  3470               	retlw	112	;'p'
   565     08F4  3461               	retlw	97	;'a'
   566     08F5  3473               	retlw	115	;'s'
   567     08F6  3473               	retlw	115	;'s'
   568     08F7  3420               	retlw	32	;' '
   569     08F8  346D               	retlw	109	;'m'
   570     08F9  346F               	retlw	111	;'o'
   571     08FA  3469               	retlw	105	;'i'
   572     08FB  3400               	retlw	0
   573     08FC                     STR_1:
   574     08FC  3420               	retlw	32	;' '
   575     08FD  344D               	retlw	77	;'M'
   576     08FE  3461               	retlw	97	;'a'
   577     08FF  3474               	retlw	116	;'t'
   578     0900  3420               	retlw	32	;' '
   579     0901  346B               	retlw	107	;'k'
   580     0902  3468               	retlw	104	;'h'
   581     0903  3461               	retlw	97	;'a'
   582     0904  3475               	retlw	117	;'u'
   583     0905  3420               	retlw	32	;' '
   584     0906  3473               	retlw	115	;'s'
   585     0907  3461               	retlw	97	;'a'
   586     0908  3469               	retlw	105	;'i'
   587     0909  3400               	retlw	0
   588     090A                     STR_2:
   589     090A  3420               	retlw	32	;' '
   590     090B  3444               	retlw	68	;'D'
   591     090C  3461               	retlw	97	;'a'
   592     090D  346E               	retlw	110	;'n'
   593     090E  3467               	retlw	103	;'g'
   594     090F  3420               	retlw	32	;' '
   595     0910  346D               	retlw	109	;'m'
   596     0911  346F               	retlw	111	;'o'
   597     0912  3420               	retlw	32	;' '
   598     0913  3463               	retlw	99	;'c'
   599     0914  3475               	retlw	117	;'u'
   600     0915  3461               	retlw	97	;'a'
   601     0916  3400               	retlw	0
   602     0917                     STR_14:
   603     0917  344E               	retlw	78	;'N'
   604     0918  3468               	retlw	104	;'h'
   605     0919  3461               	retlw	97	;'a'
   606     091A  3470               	retlw	112	;'p'
   607     091B  3420               	retlw	32	;' '
   608     091C  3470               	retlw	112	;'p'
   609     091D  3461               	retlw	97	;'a'
   610     091E  3473               	retlw	115	;'s'
   611     091F  3473               	retlw	115	;'s'
   612     0920  3420               	retlw	32	;' '
   613     0921  3463               	retlw	99	;'c'
   614     0922  3475               	retlw	117	;'u'
   615     0923  3400               	retlw	0
   616     0924                     STR_17:
   617     0924  3420               	retlw	32	;' '
   618     0925  3447               	retlw	71	;'G'
   619     0926  346F               	retlw	111	;'o'
   620     0927  346D               	retlw	109	;'m'
   621     0928  3420               	retlw	32	;' '
   622     0929  3436               	retlw	54	;'6'
   623     092A  3420               	retlw	32	;' '
   624     092B  3473               	retlw	115	;'s'
   625     092C  346F               	retlw	111	;'o'
   626     092D  3400               	retlw	0
   627     092E                     STR_6:
   628     092E  344E               	retlw	78	;'N'
   629     092F  3468               	retlw	104	;'h'
   630     0930  3461               	retlw	97	;'a'
   631     0931  3470               	retlw	112	;'p'
   632     0932  3420               	retlw	32	;' '
   633     0933  3470               	retlw	112	;'p'
   634     0934  3461               	retlw	97	;'a'
   635     0935  3473               	retlw	115	;'s'
   636     0936  3473               	retlw	115	;'s'
   637     0937  3400               	retlw	0
   638     0938                     STR_8:
   639     0938  3454               	retlw	84	;'T'
   640     0939  3468               	retlw	104	;'h'
   641     093A  3465               	retlw	101	;'e'
   642     093B  346D               	retlw	109	;'m'
   643     093C  3420               	retlw	32	;' '
   644     093D  3474               	retlw	116	;'t'
   645     093E  3468               	retlw	104	;'h'
   646     093F  3465               	retlw	101	;'e'
   647     0940  3400               	retlw	0
   648     0941                     STR_13:
   649     0941  3458               	retlw	88	;'X'
   650     0942  346F               	retlw	111	;'o'
   651     0943  3461               	retlw	97	;'a'
   652     0944  3420               	retlw	32	;' '
   653     0945  3474               	retlw	116	;'t'
   654     0946  3468               	retlw	104	;'h'
   655     0947  3465               	retlw	101	;'e'
   656     0948  3400               	retlw	0
   657     0949                     STR_4:
   658     0949  3467               	retlw	103	;'g'
   659     094A  3469               	retlw	105	;'i'
   660     094B  3461               	retlw	97	;'a'
   661     094C  3479               	retlw	121	;'y'
   662     094D  3400               	retlw	0
   663     094E                     STR_18:
   664     094E  3420               	retlw	32	;' '
   665     094F  3400               	retlw	0
   666     08AC                     
   667                           	psect	cinit
   668     07E1                     start_initialization:	
   669                           ; #config settings
   670                           
   671     07E1                     __initialization:
   672                           
   673                           ; Initialize objects allocated to BANK1
   674     07E1  1383               	bcf	3,7	;select IRP bank0
   675     07E2  30AC               	movlw	low (__pdataBANK1+12)
   676     07E3  00FD               	movwf	btemp+-1
   677     07E4  3009               	movlw	high __pidataBANK1
   678     07E5  00FE               	movwf	btemp
   679     07E6  306E               	movlw	low __pidataBANK1
   680     07E7  00FF               	movwf	btemp+1
   681     07E8  30A0               	movlw	low __pdataBANK1
   682     07E9  0084               	movwf	4
   683     07EA  120A  158A  21F9  120A  118A  	fcall	init_ram0
   684                           
   685                           ; Initialize objects allocated to BANK0
   686     07EF  306F               	movlw	low (__pdataBANK0+12)
   687     07F0  00FD               	movwf	btemp+-1
   688     07F1  3009               	movlw	high __pidataBANK0
   689     07F2  00FE               	movwf	btemp
   690     07F3  307A               	movlw	low __pidataBANK0
   691     07F4  00FF               	movwf	btemp+1
   692     07F5  3063               	movlw	low __pdataBANK0
   693     07F6  0084               	movwf	4
   694     07F7  120A  158A  21F9  120A  118A  	fcall	init_ram0
   695     07FC                     end_of_initialization:	
   696                           ;End of C runtime variable initialization code
   697                           
   698     07FC                     __end_of__initialization:
   699     07FC  0183               	clrf	3
   700     07FD  120A  158A  2CFB   	ljmp	_main	;jump to C main() function
   701                           
   702                           	psect	dataBANK0
   703     0063                     __pdataBANK0:
   704     0063                     lenh_mocua_matkhau@F1281:
   705     0063                     	ds	6
   706     0069                     _mk:
   707     0069                     	ds	6
   708                           
   709                           	psect	dataBANK1
   710     00A0                     __pdataBANK1:
   711     00A0                     lenh_doipass@F1304:
   712     00A0                     	ds	6
   713     00A6                     lenh_themthe@F1288:
   714     00A6                     	ds	6
   715                           
   716                           	psect	inittext
   717     09F5                     init_fetch0:	
   718                           ;	Called with low address in FSR and high address in W
   719                           
   720     09F5  087E               	movf	btemp,w
   721     09F6  008A               	movwf	10
   722     09F7  087F               	movf	btemp+1,w
   723     09F8  0082               	movwf	2
   724     09F9                     init_ram0:	
   725                           ;Called with:
   726                           ;	high address of idata address in btemp 
   727                           ;	low address of idata address in btemp+1 
   728                           ;	low address of data in FSR
   729                           ;	high address + 1 of data in btemp-1
   730                           
   731     09F9  120A  158A  21F5  120A  158A  	fcall	init_fetch0
   732     09FE  0080               	movwf	0
   733     09FF  0A84               	incf	4,f
   734     0A00  0804               	movf	4,w
   735     0A01  067D               	xorwf	btemp+-1,w
   736     0A02  1903               	btfsc	3,2
   737     0A03  3400               	retlw	0
   738     0A04  0AFF               	incf	btemp+1,f
   739     0A05  1903               	btfsc	3,2
   740     0A06  0AFE               	incf	btemp,f
   741     0A07  29F9               	goto	init_ram0
   742                           
   743                           	psect	cstackCOMMON
   744     0070                     __pcstackCOMMON:
   745     0070                     ?_keypad_scanner:
   746     0070                     ??_keypad_scanner:	
   747                           ; 1 bytes @ 0x0
   748                           
   749     0070                     ?_readEEPROM:	
   750                           ; 1 bytes @ 0x0
   751                           
   752     0070                     ??_readEEPROM:	
   753                           ; 1 bytes @ 0x0
   754                           
   755     0070                     ?_writeEEPROM:	
   756                           ; 1 bytes @ 0x0
   757                           
   758     0070                     ?_check_dulieu_the:	
   759                           ; 1 bytes @ 0x0
   760                           
   761     0070                     ?_lenh:	
   762                           ; 1 bytes @ 0x0
   763                           
   764     0070                     ??_lenh:	
   765                           ; 1 bytes @ 0x0
   766                           
   767     0070                     ?_gui_Lenh:	
   768                           ; 1 bytes @ 0x0
   769                           
   770     0070                     ??_gui_Lenh:	
   771                           ; 1 bytes @ 0x0
   772                           
   773     0070                     ?_khoi_taoLCD:	
   774                           ; 1 bytes @ 0x0
   775                           
   776     0070                     ?_du_lieu:	
   777                           ; 1 bytes @ 0x0
   778                           
   779     0070                     ??_du_lieu:	
   780                           ; 1 bytes @ 0x0
   781                           
   782     0070                     ?_clear_lcd:	
   783                           ; 1 bytes @ 0x0
   784                           
   785     0070                     ??_clear_lcd:	
   786                           ; 1 bytes @ 0x0
   787                           
   788     0070                     ?_switch_press_scan:	
   789                           ; 1 bytes @ 0x0
   790                           
   791     0070                     ?_khoi_taoKeypad:	
   792                           ; 1 bytes @ 0x0
   793                           
   794     0070                     ??_khoi_taoKeypad:	
   795                           ; 1 bytes @ 0x0
   796                           
   797     0070                     ?_Soft_SPI_Init:	
   798                           ; 1 bytes @ 0x0
   799                           
   800     0070                     ??_Soft_SPI_Init:	
   801                           ; 1 bytes @ 0x0
   802                           
   803     0070                     ?_Soft_SPI_Read:	
   804                           ; 1 bytes @ 0x0
   805                           
   806     0070                     ??_Soft_SPI_Read:	
   807                           ; 1 bytes @ 0x0
   808                           
   809     0070                     ?_Soft_SPI_Write:	
   810                           ; 1 bytes @ 0x0
   811                           
   812     0070                     ??_Soft_SPI_Write:	
   813                           ; 1 bytes @ 0x0
   814                           
   815     0070                     ?_MFRC522_Rd:	
   816                           ; 1 bytes @ 0x0
   817                           
   818     0070                     ?_MFRC522_Reset:	
   819                           ; 1 bytes @ 0x0
   820                           
   821     0070                     ?_MFRC522_AntennaOn:	
   822                           ; 1 bytes @ 0x0
   823                           
   824     0070                     ?_MFRC522_AntennaOff:	
   825                           ; 1 bytes @ 0x0
   826                           
   827     0070                     ?_MFRC522_Init:	
   828                           ; 1 bytes @ 0x0
   829                           
   830     0070                     ?_MFRC522_AntiColl:	
   831                           ; 1 bytes @ 0x0
   832                           
   833     0070                     ?_MFRC522_isCard:	
   834                           ; 1 bytes @ 0x0
   835                           
   836     0070                     ?_MFRC522_ReadCardSerial:	
   837                           ; 1 bytes @ 0x0
   838                           
   839     0070                     ?_failunlock:	
   840                           ; 1 bytes @ 0x0
   841                           
   842     0070                     ?_unlock:	
   843                           ; 1 bytes @ 0x0
   844                           
   845     0070                     ?_lenh_mocua_quetthe:	
   846                           ; 1 bytes @ 0x0
   847                           
   848     0070                     ?_lenh_mocua_matkhau:	
   849                           ; 1 bytes @ 0x0
   850                           
   851     0070                     ?_lenh_themthe:	
   852                           ; 1 bytes @ 0x0
   853                           
   854     0070                     ?_lenh_xoathe:	
   855                           ; 1 bytes @ 0x0
   856                           
   857     0070                     ?_lenh_doipass:	
   858                           ; 1 bytes @ 0x0
   859                           
   860     0070                     ?_menu:	
   861                           ; 1 bytes @ 0x0
   862                           
   863     0070                     ?_taplenh_menu:	
   864                           ; 1 bytes @ 0x0
   865                           
   866     0070                     ?_main:	
   867                           ; 1 bytes @ 0x0
   868                           
   869     0070                     ?___bmul:	
   870                           ; 1 bytes @ 0x0
   871                           
   872     0070                     readEEPROM@address:	
   873                           ; 1 bytes @ 0x0
   874                           
   875     0070                     writeEEPROM@DATA:	
   876                           ; 1 bytes @ 0x0
   877                           
   878     0070                     ___bmul@multiplicand:	
   879                           ; 1 bytes @ 0x0
   880                           
   881                           
   882                           ; 1 bytes @ 0x0
   883     0070                     	ds	1
   884     0071                     ??_writeEEPROM:
   885     0071                     ??___bmul:	
   886                           ; 1 bytes @ 0x1
   887                           
   888     0071                     lenh@a:	
   889                           ; 1 bytes @ 0x1
   890                           
   891     0071                     gui_Lenh@a:	
   892                           ; 1 bytes @ 0x1
   893                           
   894     0071                     du_lieu@a:	
   895                           ; 1 bytes @ 0x1
   896                           
   897     0071                     Soft_SPI_Read@dato_:	
   898                           ; 1 bytes @ 0x1
   899                           
   900     0071                     Soft_SPI_Write@dato_:	
   901                           ; 1 bytes @ 0x1
   902                           
   903     0071                     writeEEPROM@address:	
   904                           ; 1 bytes @ 0x1
   905                           
   906     0071                     ___bmul@product:	
   907                           ; 1 bytes @ 0x1
   908                           
   909                           
   910                           ; 1 bytes @ 0x1
   911     0071                     	ds	1
   912     0072                     ??_khoi_taoLCD:
   913     0072                     ?_chuoi_kytu:	
   914                           ; 1 bytes @ 0x2
   915                           
   916     0072                     ??_switch_press_scan:	
   917                           ; 1 bytes @ 0x2
   918                           
   919     0072                     switch_press_scan@key:	
   920                           ; 1 bytes @ 0x2
   921                           
   922     0072                     Soft_SPI_Read@cont_s:	
   923                           ; 1 bytes @ 0x2
   924                           
   925     0072                     Soft_SPI_Write@cont_s:	
   926                           ; 1 bytes @ 0x2
   927                           
   928     0072                     ___bmul@multiplier:	
   929                           ; 1 bytes @ 0x2
   930                           
   931     0072                     chuoi_kytu@a:	
   932                           ; 1 bytes @ 0x2
   933                           
   934                           
   935                           ; 2 bytes @ 0x2
   936     0072                     	ds	1
   937     0073                     ??_check_dulieu_the:
   938     0073                     ??_MFRC522_Rd:	
   939                           ; 1 bytes @ 0x3
   940                           
   941     0073                     clear_lcd@a:	
   942                           ; 1 bytes @ 0x3
   943                           
   944     0073                     check_dulieu_the@number:	
   945                           ; 1 bytes @ 0x3
   946                           
   947                           
   948                           ; 1 bytes @ 0x3
   949     0073                     	ds	1
   950     0074                     ??_chuoi_kytu:
   951     0074                     chuoi_kytu@i:	
   952                           ; 1 bytes @ 0x4
   953                           
   954     0074                     MFRC522_Rd@addr:	
   955                           ; 1 bytes @ 0x4
   956                           
   957                           
   958                           ; 1 bytes @ 0x4
   959     0074                     	ds	1
   960     0075                     ??_failunlock:
   961     0075                     ??_unlock:	
   962                           ; 1 bytes @ 0x5
   963                           
   964     0075                     ??_lenh_xoathe:	
   965                           ; 1 bytes @ 0x5
   966                           
   967     0075                     ??_menu:	
   968                           ; 1 bytes @ 0x5
   969                           
   970     0075                     MFRC522_Rd@value:	
   971                           ; 1 bytes @ 0x5
   972                           
   973                           
   974                           ; 1 bytes @ 0x5
   975     0075                     	ds	1
   976     0076                     ?_MFRC522_Wr:
   977     0076                     MFRC522_Wr@value:	
   978                           ; 1 bytes @ 0x6
   979                           
   980                           
   981                           ; 1 bytes @ 0x6
   982     0076                     	ds	1
   983     0077                     ??_MFRC522_Wr:
   984                           
   985                           ; 1 bytes @ 0x7
   986     0077                     	ds	1
   987     0078                     ??_lenh_doipass:
   988     0078                     MFRC522_Wr@addr:	
   989                           ; 1 bytes @ 0x8
   990                           
   991     0078                     unlock@j:	
   992                           ; 1 bytes @ 0x8
   993                           
   994                           
   995                           ; 1 bytes @ 0x8
   996     0078                     	ds	1
   997     0079                     ?_MFRC522_Clear_Bit:
   998     0079                     ?_MFRC522_Set_Bit:	
   999                           ; 1 bytes @ 0x9
  1000                           
  1001     0079                     ??_MFRC522_Reset:	
  1002                           ; 1 bytes @ 0x9
  1003                           
  1004     0079                     MFRC522_Clear_Bit@mask:	
  1005                           ; 1 bytes @ 0x9
  1006                           
  1007     0079                     MFRC522_Set_Bit@mask:	
  1008                           ; 1 bytes @ 0x9
  1009                           
  1010     0079                     unlock@i:	
  1011                           ; 1 bytes @ 0x9
  1012                           
  1013                           
  1014                           ; 2 bytes @ 0x9
  1015     0079                     	ds	1
  1016     007A                     ??_MFRC522_Clear_Bit:
  1017     007A                     ??_MFRC522_Set_Bit:	
  1018                           ; 1 bytes @ 0xA
  1019                           
  1020     007A                     MFRC522_Set_Bit@addr:	
  1021                           ; 1 bytes @ 0xA
  1022                           
  1023                           
  1024                           ; 1 bytes @ 0xA
  1025     007A                     	ds	1
  1026     007B                     ??_MFRC522_AntennaOn:
  1027     007B                     ??_lenh_mocua_matkhau:	
  1028                           ; 1 bytes @ 0xB
  1029                           
  1030     007B                     MFRC522_Clear_Bit@addr:	
  1031                           ; 1 bytes @ 0xB
  1032                           
  1033                           
  1034                           ; 1 bytes @ 0xB
  1035     007B                     	ds	1
  1036     007C                     ??_MFRC522_AntennaOff:
  1037     007C                     ??_MFRC522_Init:	
  1038                           ; 1 bytes @ 0xC
  1039                           
  1040     007C                     ?_MFRC522_Request:	
  1041                           ; 1 bytes @ 0xC
  1042                           
  1043     007C                     ??_MFRC522_AntiColl:	
  1044                           ; 1 bytes @ 0xC
  1045                           
  1046     007C                     MFRC522_Request@TagType:	
  1047                           ; 1 bytes @ 0xC
  1048                           
  1049                           
  1050                           ; 1 bytes @ 0xC
  1051     007C                     	ds	1
  1052     007D                     ??_MFRC522_Request:
  1053     007D                     ??_MFRC522_isCard:	
  1054                           ; 1 bytes @ 0xD
  1055                           
  1056     007D                     ??_MFRC522_ReadCardSerial:	
  1057                           ; 1 bytes @ 0xD
  1058                           
  1059     007D                     MFRC522_isCard@TagType:	
  1060                           ; 1 bytes @ 0xD
  1061                           
  1062                           
  1063                           ; 1 bytes @ 0xD
  1064     007D                     	ds	1
  1065                           
  1066                           	psect	cstackBANK0
  1067     0020                     __pcstackBANK0:
  1068     0020                     ?_MFRC522_ToCard:
  1069     0020                     MFRC522_ToCard@sendData:	
  1070                           ; 1 bytes @ 0x0
  1071                           
  1072     0020                     lenh_mocua_matkhau@a:	
  1073                           ; 1 bytes @ 0x0
  1074                           
  1075     0020                     lenh_doipass@a:	
  1076                           ; 6 bytes @ 0x0
  1077                           
  1078                           
  1079                           ; 6 bytes @ 0x0
  1080     0020                     	ds	1
  1081     0021                     MFRC522_ToCard@sendLen:
  1082                           
  1083                           ; 1 bytes @ 0x1
  1084     0021                     	ds	1
  1085     0022                     MFRC522_ToCard@backData:
  1086                           
  1087                           ; 1 bytes @ 0x2
  1088     0022                     	ds	1
  1089     0023                     MFRC522_ToCard@backLen:
  1090                           
  1091                           ; 1 bytes @ 0x3
  1092     0023                     	ds	1
  1093     0024                     ??_MFRC522_ToCard:
  1094                           
  1095                           ; 1 bytes @ 0x4
  1096     0024                     	ds	2
  1097     0026                     lenh_mocua_matkhau@flagmksai:
  1098     0026                     lenh_doipass@flagmksai:	
  1099                           ; 2 bytes @ 0x6
  1100                           
  1101                           
  1102                           ; 2 bytes @ 0x6
  1103     0026                     	ds	2
  1104     0028                     lenh_mocua_matkhau@nutnhan:
  1105     0028                     lenh_doipass@nutnhan:	
  1106                           ; 1 bytes @ 0x8
  1107                           
  1108                           
  1109                           ; 1 bytes @ 0x8
  1110     0028                     	ds	1
  1111     0029                     lenh_mocua_matkhau@j:
  1112     0029                     lenh_doipass@j:	
  1113                           ; 1 bytes @ 0x9
  1114                           
  1115                           
  1116                           ; 1 bytes @ 0x9
  1117     0029                     	ds	1
  1118     002A                     MFRC522_ToCard@waitIRq:
  1119     002A                     lenh_mocua_matkhau@i:	
  1120                           ; 1 bytes @ 0xA
  1121                           
  1122     002A                     lenh_doipass@i:	
  1123                           ; 2 bytes @ 0xA
  1124                           
  1125                           
  1126                           ; 2 bytes @ 0xA
  1127     002A                     	ds	1
  1128     002B                     MFRC522_ToCard@_status:
  1129                           
  1130                           ; 1 bytes @ 0xB
  1131     002B                     	ds	1
  1132     002C                     MFRC522_ToCard@lastBits:
  1133                           
  1134                           ; 1 bytes @ 0xC
  1135     002C                     	ds	1
  1136     002D                     MFRC522_ToCard@irqEn:
  1137                           
  1138                           ; 1 bytes @ 0xD
  1139     002D                     	ds	1
  1140     002E                     MFRC522_ToCard@command:
  1141                           
  1142                           ; 1 bytes @ 0xE
  1143     002E                     	ds	1
  1144     002F                     MFRC522_ToCard@i:
  1145                           
  1146                           ; 2 bytes @ 0xF
  1147     002F                     	ds	2
  1148     0031                     MFRC522_ToCard@n:
  1149                           
  1150                           ; 1 bytes @ 0x11
  1151     0031                     	ds	1
  1152     0032                     MFRC522_Request@reqMode:
  1153     0032                     MFRC522_AntiColl@serNumCheck:	
  1154                           ; 1 bytes @ 0x12
  1155                           
  1156                           
  1157                           ; 1 bytes @ 0x12
  1158     0032                     	ds	1
  1159     0033                     MFRC522_Request@_status:
  1160     0033                     MFRC522_AntiColl@unLen:	
  1161                           ; 1 bytes @ 0x13
  1162                           
  1163                           
  1164                           ; 2 bytes @ 0x13
  1165     0033                     	ds	1
  1166     0034                     MFRC522_Request@backBits:
  1167                           
  1168                           ; 2 bytes @ 0x14
  1169     0034                     	ds	1
  1170     0035                     MFRC522_AntiColl@_status:
  1171                           
  1172                           ; 1 bytes @ 0x15
  1173     0035                     	ds	1
  1174     0036                     MFRC522_AntiColl@i:
  1175                           
  1176                           ; 1 bytes @ 0x16
  1177     0036                     	ds	1
  1178     0037                     MFRC522_AntiColl@serNum:
  1179                           
  1180                           ; 1 bytes @ 0x17
  1181     0037                     	ds	1
  1182     0038                     MFRC522_ReadCardSerial@_status:
  1183                           
  1184                           ; 1 bytes @ 0x18
  1185     0038                     	ds	1
  1186     0039                     MFRC522_ReadCardSerial@str:
  1187                           
  1188                           ; 1 bytes @ 0x19
  1189     0039                     	ds	1
  1190     003A                     ??_lenh_mocua_quetthe:
  1191     003A                     ??_lenh_themthe:	
  1192                           ; 1 bytes @ 0x1A
  1193                           
  1194                           
  1195                           ; 1 bytes @ 0x1A
  1196     003A                     	ds	3
  1197     003D                     lenh_mocua_quetthe@flag:
  1198     003D                     lenh_themthe@a:	
  1199                           ; 2 bytes @ 0x1D
  1200                           
  1201                           
  1202                           ; 6 bytes @ 0x1D
  1203     003D                     	ds	2
  1204     003F                     lenh_mocua_quetthe@a:
  1205                           
  1206                           ; 2 bytes @ 0x1F
  1207     003F                     	ds	2
  1208     0041                     lenh_mocua_quetthe@UID:
  1209                           
  1210                           ; 10 bytes @ 0x21
  1211     0041                     	ds	2
  1212     0043                     lenh_themthe@UID:
  1213                           
  1214                           ; 10 bytes @ 0x23
  1215     0043                     	ds	8
  1216     004B                     lenh_mocua_quetthe@h:
  1217                           
  1218                           ; 2 bytes @ 0x2B
  1219     004B                     	ds	2
  1220     004D                     lenh_mocua_quetthe@address:
  1221     004D                     lenh_themthe@flagmksai:	
  1222                           ; 1 bytes @ 0x2D
  1223                           
  1224                           
  1225                           ; 2 bytes @ 0x2D
  1226     004D                     	ds	1
  1227     004E                     lenh_mocua_quetthe@i:
  1228                           
  1229                           ; 2 bytes @ 0x2E
  1230     004E                     	ds	1
  1231     004F                     lenh_themthe@nutnhan:
  1232                           
  1233                           ; 1 bytes @ 0x2F
  1234     004F                     	ds	1
  1235     0050                     lenh_themthe@h:
  1236     0050                     lenh_mocua_quetthe@TagType:	
  1237                           ; 1 bytes @ 0x30
  1238                           
  1239                           
  1240                           ; 2 bytes @ 0x30
  1241     0050                     	ds	1
  1242     0051                     lenh_themthe@TagType:
  1243                           
  1244                           ; 2 bytes @ 0x31
  1245     0051                     	ds	1
  1246     0052                     lenh_mocua_quetthe@x:
  1247                           
  1248                           ; 1 bytes @ 0x32
  1249     0052                     	ds	1
  1250     0053                     lenh_mocua_quetthe@y:
  1251     0053                     lenh_themthe@i_389:	
  1252                           ; 1 bytes @ 0x33
  1253                           
  1254                           
  1255                           ; 2 bytes @ 0x33
  1256     0053                     	ds	1
  1257     0054                     lenh_mocua_quetthe@j:
  1258                           
  1259                           ; 2 bytes @ 0x34
  1260     0054                     	ds	1
  1261     0055                     lenh_themthe@number:
  1262                           
  1263                           ; 1 bytes @ 0x35
  1264     0055                     	ds	1
  1265     0056                     lenh_themthe@j_393:
  1266     0056                     lenh_mocua_quetthe@tong:	
  1267                           ; 1 bytes @ 0x36
  1268                           
  1269                           
  1270                           ; 2 bytes @ 0x36
  1271     0056                     	ds	1
  1272     0057                     lenh_themthe@j:
  1273                           
  1274                           ; 1 bytes @ 0x37
  1275     0057                     	ds	1
  1276     0058                     lenh_themthe@i:
  1277                           
  1278                           ; 2 bytes @ 0x38
  1279     0058                     	ds	2
  1280     005A                     ??_taplenh_menu:
  1281                           
  1282                           ; 1 bytes @ 0x3A
  1283     005A                     	ds	3
  1284     005D                     taplenh_menu@nut:
  1285                           
  1286                           ; 1 bytes @ 0x3D
  1287     005D                     	ds	1
  1288     005E                     taplenh_menu@a:
  1289                           
  1290                           ; 1 bytes @ 0x3E
  1291     005E                     	ds	1
  1292     005F                     ??_main:
  1293                           
  1294                           ; 1 bytes @ 0x3F
  1295     005F                     	ds	3
  1296     0062                     main@nut:
  1297                           
  1298                           ; 1 bytes @ 0x42
  1299     0062                     	ds	1
  1300                           
  1301                           	psect	maintext
  1302     0CFB                     __pmaintext:	
  1303 ;;
  1304 ;;Main: autosize = 0, tempsize = 3, incstack = 0, save=0
  1305 ;;
  1306 ;; *************** function _main *****************
  1307 ;; Defined at:
  1308 ;;		line 57 in file "mainproject.c"
  1309 ;; Parameters:    Size  Location     Type
  1310 ;;		None
  1311 ;; Auto vars:     Size  Location     Type
  1312 ;;  UID            10    0        unsigned char [10]
  1313 ;;  TagType         2    0        unsigned int 
  1314 ;;  nut             1   66[BANK0 ] unsigned char 
  1315 ;; Return value:  Size  Location     Type
  1316 ;;                  1    wreg      void 
  1317 ;; Registers used:
  1318 ;;		wreg, fsr0l, fsr0h, status,2, status,0, btemp+1, pclath, cstack
  1319 ;; Tracked objects:
  1320 ;;		On entry : B00/0
  1321 ;;		On exit  : 0/0
  1322 ;;		Unchanged: 0/0
  1323 ;; Data sizes:     COMMON   BANK0   BANK1   BANK3   BANK2
  1324 ;;      Params:         0       0       0       0       0
  1325 ;;      Locals:         0       1       0       0       0
  1326 ;;      Temps:          0       3       0       0       0
  1327 ;;      Totals:         0       4       0       0       0
  1328 ;;Total ram usage:        4 bytes
  1329 ;; Hardware stack levels required when called: 8
  1330 ;; This function calls:
  1331 ;;		_MFRC522_Init
  1332 ;;		_Soft_SPI_Init
  1333 ;;		_khoi_taoKeypad
  1334 ;;		_khoi_taoLCD
  1335 ;;		_menu
  1336 ;;		_switch_press_scan
  1337 ;;		_taplenh_menu
  1338 ;; This function is called by:
  1339 ;;		Startup code after reset
  1340 ;; This function uses a non-reentrant model
  1341 ;;
  1342                           
  1343     0CFB                     _main:	
  1344                           ;psect for function _main
  1345                           
  1346     0CFB                     l3657:	
  1347                           ;incstack = 0
  1348                           ; Regs used in _main: [wreg-fsr0h+status,2+status,0+btemp+1+pclath+cstack]
  1349                           
  1350                           
  1351                           ;mainproject.c: 58:     TRISD = 0x00;
  1352     0CFB  1683               	bsf	3,5	;RP0=1, select bank1
  1353     0CFC  1303               	bcf	3,6	;RP1=0, select bank1
  1354     0CFD  0188               	clrf	8	;volatile
  1355     0CFE                     l3659:
  1356                           
  1357                           ;mainproject.c: 59:     TRISA = 0xD8;
  1358     0CFE  30D8               	movlw	216
  1359     0CFF  0085               	movwf	5	;volatile
  1360     0D00                     l3661:
  1361                           
  1362                           ;mainproject.c: 60:     PORTD = 0x00;
  1363     0D00  1283               	bcf	3,5	;RP0=0, select bank0
  1364     0D01  1303               	bcf	3,6	;RP1=0, select bank0
  1365     0D02  0188               	clrf	8	;volatile
  1366     0D03                     l3663:
  1367                           
  1368                           ;mainproject.c: 61:     Soft_SPI_Init();
  1369     0D03  120A  158A  2186  120A  158A  	fcall	_Soft_SPI_Init
  1370     0D08                     l3665:
  1371                           
  1372                           ;mainproject.c: 62:     MFRC522_Init();
  1373     0D08  120A  158A  240D  120A  158A  	fcall	_MFRC522_Init
  1374     0D0D                     l3667:
  1375                           
  1376                           ;mainproject.c: 63:     khoi_taoLCD();
  1377     0D0D  120A  158A  224D  120A  158A  	fcall	_khoi_taoLCD
  1378                           
  1379                           ;mainproject.c: 64:     khoi_taoKeypad();
  1380     0D12  120A  158A  2162  120A  158A  	fcall	_khoi_taoKeypad
  1381     0D17                     l3669:
  1382                           
  1383                           ;mainproject.c: 65:     PORTAbits.RA0 = 1;
  1384     0D17  1283               	bcf	3,5	;RP0=0, select bank0
  1385     0D18  1303               	bcf	3,6	;RP1=0, select bank0
  1386     0D19  1405               	bsf	5,0	;volatile
  1387     0D1A                     l3671:
  1388                           
  1389                           ;mainproject.c: 66:     _delay((unsigned long)((250)*(20000000/4000.0)));
  1390     0D1A  3007               	movlw	7
  1391     0D1B  1283               	bcf	3,5	;RP0=0, select bank0
  1392     0D1C  1303               	bcf	3,6	;RP1=0, select bank0
  1393     0D1D  00E1               	movwf	??_main+2
  1394     0D1E  3058               	movlw	88
  1395     0D1F  00E0               	movwf	??_main+1
  1396     0D20  3059               	movlw	89
  1397     0D21  00DF               	movwf	??_main
  1398     0D22                     u2877:
  1399     0D22  0BDF               	decfsz	??_main,f
  1400     0D23  2D22               	goto	u2877
  1401     0D24  0BE0               	decfsz	??_main+1,f
  1402     0D25  2D22               	goto	u2877
  1403     0D26  0BE1               	decfsz	??_main+2,f
  1404     0D27  2D22               	goto	u2877
  1405     0D28                     l3673:
  1406                           
  1407                           ;mainproject.c: 67:     PORTAbits.RA0 = 0;
  1408     0D28  1283               	bcf	3,5	;RP0=0, select bank0
  1409     0D29  1303               	bcf	3,6	;RP1=0, select bank0
  1410     0D2A  1005               	bcf	5,0	;volatile
  1411     0D2B                     l3675:
  1412                           
  1413                           ;mainproject.c: 68:      _delay((unsigned long)((250)*(20000000/4000.0)));
  1414     0D2B  3007               	movlw	7
  1415     0D2C  1283               	bcf	3,5	;RP0=0, select bank0
  1416     0D2D  1303               	bcf	3,6	;RP1=0, select bank0
  1417     0D2E  00E1               	movwf	??_main+2
  1418     0D2F  3058               	movlw	88
  1419     0D30  00E0               	movwf	??_main+1
  1420     0D31  3059               	movlw	89
  1421     0D32  00DF               	movwf	??_main
  1422     0D33                     u2887:
  1423     0D33  0BDF               	decfsz	??_main,f
  1424     0D34  2D33               	goto	u2887
  1425     0D35  0BE0               	decfsz	??_main+1,f
  1426     0D36  2D33               	goto	u2887
  1427     0D37  0BE1               	decfsz	??_main+2,f
  1428     0D38  2D33               	goto	u2887
  1429     0D39                     l3677:
  1430                           
  1431                           ;mainproject.c: 69:      PORTAbits.RA1 = 1;
  1432     0D39  1283               	bcf	3,5	;RP0=0, select bank0
  1433     0D3A  1303               	bcf	3,6	;RP1=0, select bank0
  1434     0D3B  1485               	bsf	5,1	;volatile
  1435     0D3C                     l3679:
  1436                           
  1437                           ;mainproject.c: 70:     _delay((unsigned long)((250)*(20000000/4000.0)));
  1438     0D3C  3007               	movlw	7
  1439     0D3D  1283               	bcf	3,5	;RP0=0, select bank0
  1440     0D3E  1303               	bcf	3,6	;RP1=0, select bank0
  1441     0D3F  00E1               	movwf	??_main+2
  1442     0D40  3058               	movlw	88
  1443     0D41  00E0               	movwf	??_main+1
  1444     0D42  3059               	movlw	89
  1445     0D43  00DF               	movwf	??_main
  1446     0D44                     u2897:
  1447     0D44  0BDF               	decfsz	??_main,f
  1448     0D45  2D44               	goto	u2897
  1449     0D46  0BE0               	decfsz	??_main+1,f
  1450     0D47  2D44               	goto	u2897
  1451     0D48  0BE1               	decfsz	??_main+2,f
  1452     0D49  2D44               	goto	u2897
  1453     0D4A                     l3681:
  1454                           
  1455                           ;mainproject.c: 71:     PORTAbits.RA1 = 0;
  1456     0D4A  1283               	bcf	3,5	;RP0=0, select bank0
  1457     0D4B  1303               	bcf	3,6	;RP1=0, select bank0
  1458     0D4C  1085               	bcf	5,1	;volatile
  1459     0D4D                     l3683:
  1460                           
  1461                           ;mainproject.c: 72:     _delay((unsigned long)((250)*(20000000/4000.0)));
  1462     0D4D  3007               	movlw	7
  1463     0D4E  1283               	bcf	3,5	;RP0=0, select bank0
  1464     0D4F  1303               	bcf	3,6	;RP1=0, select bank0
  1465     0D50  00E1               	movwf	??_main+2
  1466     0D51  3058               	movlw	88
  1467     0D52  00E0               	movwf	??_main+1
  1468     0D53  3059               	movlw	89
  1469     0D54  00DF               	movwf	??_main
  1470     0D55                     u2907:
  1471     0D55  0BDF               	decfsz	??_main,f
  1472     0D56  2D55               	goto	u2907
  1473     0D57  0BE0               	decfsz	??_main+1,f
  1474     0D58  2D55               	goto	u2907
  1475     0D59  0BE1               	decfsz	??_main+2,f
  1476     0D5A  2D55               	goto	u2907
  1477     0D5B                     l3685:
  1478                           
  1479                           ;mainproject.c: 73:      PORTAbits.RA2 = 1;
  1480     0D5B  1283               	bcf	3,5	;RP0=0, select bank0
  1481     0D5C  1303               	bcf	3,6	;RP1=0, select bank0
  1482     0D5D  1505               	bsf	5,2	;volatile
  1483     0D5E                     l3687:
  1484                           
  1485                           ;mainproject.c: 74:     _delay((unsigned long)((250)*(20000000/4000.0)));
  1486     0D5E  3007               	movlw	7
  1487     0D5F  1283               	bcf	3,5	;RP0=0, select bank0
  1488     0D60  1303               	bcf	3,6	;RP1=0, select bank0
  1489     0D61  00E1               	movwf	??_main+2
  1490     0D62  3058               	movlw	88
  1491     0D63  00E0               	movwf	??_main+1
  1492     0D64  3059               	movlw	89
  1493     0D65  00DF               	movwf	??_main
  1494     0D66                     u2917:
  1495     0D66  0BDF               	decfsz	??_main,f
  1496     0D67  2D66               	goto	u2917
  1497     0D68  0BE0               	decfsz	??_main+1,f
  1498     0D69  2D66               	goto	u2917
  1499     0D6A  0BE1               	decfsz	??_main+2,f
  1500     0D6B  2D66               	goto	u2917
  1501     0D6C                     l3689:
  1502                           
  1503                           ;mainproject.c: 75:     PORTAbits.RA2 = 0;
  1504     0D6C  1283               	bcf	3,5	;RP0=0, select bank0
  1505     0D6D  1303               	bcf	3,6	;RP1=0, select bank0
  1506     0D6E  1105               	bcf	5,2	;volatile
  1507     0D6F                     l3691:
  1508                           
  1509                           ;mainproject.c: 76:      _delay((unsigned long)((250)*(20000000/4000.0)));
  1510     0D6F  3007               	movlw	7
  1511     0D70  1283               	bcf	3,5	;RP0=0, select bank0
  1512     0D71  1303               	bcf	3,6	;RP1=0, select bank0
  1513     0D72  00E1               	movwf	??_main+2
  1514     0D73  3058               	movlw	88
  1515     0D74  00E0               	movwf	??_main+1
  1516     0D75  3059               	movlw	89
  1517     0D76  00DF               	movwf	??_main
  1518     0D77                     u2927:
  1519     0D77  0BDF               	decfsz	??_main,f
  1520     0D78  2D77               	goto	u2927
  1521     0D79  0BE0               	decfsz	??_main+1,f
  1522     0D7A  2D77               	goto	u2927
  1523     0D7B  0BE1               	decfsz	??_main+2,f
  1524     0D7C  2D77               	goto	u2927
  1525     0D7D                     l3693:
  1526                           
  1527                           ;mainproject.c: 86:         menu();
  1528     0D7D  120A  158A  23CB  120A  158A  	fcall	_menu
  1529     0D82                     l3695:
  1530                           
  1531                           ;mainproject.c: 87:         nut = switch_press_scan();
  1532     0D82  120A  158A  21C0  120A  158A  	fcall	_switch_press_scan
  1533     0D87  1283               	bcf	3,5	;RP0=0, select bank0
  1534     0D88  1303               	bcf	3,6	;RP1=0, select bank0
  1535     0D89  00E2               	movwf	main@nut
  1536     0D8A                     l3699:	
  1537                           ;mainproject.c: 88:         while(nut == ('1','2','3','4','5','6','7','8','9','0','*','#
      +                          ')){
  1538                           
  1539                           
  1540                           ;mainproject.c: 88:         while(nut == ('1','2','3','4','5','6','7','8','9','0','*','#
      +                          ')){
  1541     0D8A  3023               	movlw	35
  1542     0D8B  0662               	xorwf	main@nut,w
  1543     0D8C  1903               	btfsc	3,2
  1544     0D8D  2D8F               	goto	u2861
  1545     0D8E  2D90               	goto	u2860
  1546     0D8F                     u2861:
  1547     0D8F  2D82               	goto	l3695
  1548     0D90                     u2860:
  1549     0D90                     l3701:
  1550                           
  1551                           ;mainproject.c: 91:         taplenh_menu(nut);
  1552     0D90  0862               	movf	main@nut,w
  1553     0D91  120A  158A  263F  120A  158A  	fcall	_taplenh_menu
  1554     0D96  2D7D               	goto	l3693
  1555     0D97  120A  118A  2800   	ljmp	start
  1556     0D9A                     __end_of_main:
  1557                           
  1558                           	psect	text1
  1559     0E3F                     __ptext1:	
  1560 ;; *************** function _taplenh_menu *****************
  1561 ;; Defined at:
  1562 ;;		line 347 in file "./menu.h"
  1563 ;; Parameters:    Size  Location     Type
  1564 ;;  a               1    wreg     unsigned char 
  1565 ;; Auto vars:     Size  Location     Type
  1566 ;;  a               1   62[BANK0 ] unsigned char 
  1567 ;;  nut             1   61[BANK0 ] unsigned char 
  1568 ;; Return value:  Size  Location     Type
  1569 ;;                  1    wreg      unsigned char 
  1570 ;; Registers used:
  1571 ;;		wreg, fsr0l, fsr0h, status,2, status,0, btemp+1, pclath, cstack
  1572 ;; Tracked objects:
  1573 ;;		On entry : 0/0
  1574 ;;		On exit  : 0/0
  1575 ;;		Unchanged: 0/0
  1576 ;; Data sizes:     COMMON   BANK0   BANK1   BANK3   BANK2
  1577 ;;      Params:         0       0       0       0       0
  1578 ;;      Locals:         0       2       0       0       0
  1579 ;;      Temps:          0       3       0       0       0
  1580 ;;      Totals:         0       5       0       0       0
  1581 ;;Total ram usage:        5 bytes
  1582 ;; Hardware stack levels used: 1
  1583 ;; Hardware stack levels required when called: 7
  1584 ;; This function calls:
  1585 ;;		_chuoi_kytu
  1586 ;;		_clear_lcd
  1587 ;;		_lenh
  1588 ;;		_lenh_doipass
  1589 ;;		_lenh_mocua_matkhau
  1590 ;;		_lenh_mocua_quetthe
  1591 ;;		_lenh_themthe
  1592 ;;		_lenh_xoathe
  1593 ;;		_switch_press_scan
  1594 ;; This function is called by:
  1595 ;;		_main
  1596 ;; This function uses a non-reentrant model
  1597 ;;
  1598                           
  1599     0E3F                     _taplenh_menu:	
  1600                           ;psect for function _taplenh_menu
  1601                           
  1602                           
  1603                           ;incstack = 0
  1604                           ; Regs used in _taplenh_menu: [wreg-fsr0h+status,2+status,0+btemp+1+pclath+cstack]
  1605                           ;taplenh_menu@a stored from wreg
  1606     0E3F  1283               	bcf	3,5	;RP0=0, select bank0
  1607     0E40  1303               	bcf	3,6	;RP1=0, select bank0
  1608     0E41  00DE               	movwf	taplenh_menu@a
  1609     0E42                     l3473:
  1610                           
  1611                           ;./menu.h: 348:         }
  1612     0E42  3041               	movlw	65
  1613     0E43  065E               	xorwf	taplenh_menu@a,w
  1614     0E44  1D03               	btfss	3,2
  1615     0E45  2E47               	goto	u2621
  1616     0E46  2E48               	goto	u2620
  1617     0E47                     u2621:
  1618     0E47  2EA3               	goto	l3505
  1619     0E48                     u2620:
  1620     0E48                     l3475:
  1621                           
  1622                           ;./menu.h: 349:         if(nut == 'B'){
  1623     0E48  1485               	bsf	5,1	;volatile
  1624     0E49                     l3477:
  1625                           
  1626                           ;./menu.h: 350:             lenh_mocua_matkhau();
  1627     0E49  3003               	movlw	3
  1628     0E4A  1283               	bcf	3,5	;RP0=0, select bank0
  1629     0E4B  1303               	bcf	3,6	;RP1=0, select bank0
  1630     0E4C  00DC               	movwf	??_taplenh_menu+2
  1631     0E4D  308A               	movlw	138
  1632     0E4E  00DB               	movwf	??_taplenh_menu+1
  1633     0E4F  3055               	movlw	85
  1634     0E50  00DA               	movwf	??_taplenh_menu
  1635     0E51                     u2937:
  1636     0E51  0BDA               	decfsz	??_taplenh_menu,f
  1637     0E52  2E51               	goto	u2937
  1638     0E53  0BDB               	decfsz	??_taplenh_menu+1,f
  1639     0E54  2E51               	goto	u2937
  1640     0E55  0BDC               	decfsz	??_taplenh_menu+2,f
  1641     0E56  2E51               	goto	u2937
  1642     0E57                     l3479:
  1643                           
  1644                           ;./menu.h: 351:         }
  1645     0E57  1283               	bcf	3,5	;RP0=0, select bank0
  1646     0E58  1303               	bcf	3,6	;RP1=0, select bank0
  1647     0E59  1085               	bcf	5,1	;volatile
  1648     0E5A                     l3481:
  1649                           
  1650                           ;./menu.h: 352:     }
  1651     0E5A  120A  118A  200C  120A  158A  	fcall	_clear_lcd
  1652     0E5F                     l3483:
  1653                           
  1654                           ;./menu.h: 353:     if(a=='B'){
  1655     0E5F  3080               	movlw	128
  1656     0E60  120A  158A  22B4  120A  158A  	fcall	_lenh
  1657     0E65                     l3485:
  1658                           
  1659                           ;./menu.h: 354:         PORTAbits.RA1 = 1;
  1660     0E65  3089               	movlw	low (STR_24| (0+32768))
  1661     0E66  00F2               	movwf	chuoi_kytu@a
  1662     0E67  3088               	movlw	high (STR_24| (0+32768))
  1663     0E68  00F3               	movwf	chuoi_kytu@a+1
  1664     0E69  120A  158A  236D  120A  158A  	fcall	_chuoi_kytu
  1665     0E6E                     l3487:
  1666                           
  1667                           ;./menu.h: 355:         _delay((unsigned long)((100)*(20000000/4000.0)));
  1668     0E6E  30C0               	movlw	192
  1669     0E6F  120A  158A  22B4  120A  158A  	fcall	_lenh
  1670     0E74                     l3489:
  1671                           
  1672                           ;./menu.h: 356:         PORTAbits.RA1 = 0;
  1673     0E74  30CE               	movlw	low (STR_25| (0+32768))
  1674     0E75  00F2               	movwf	chuoi_kytu@a
  1675     0E76  3088               	movlw	high (STR_25| (0+32768))
  1676     0E77  00F3               	movwf	chuoi_kytu@a+1
  1677     0E78  120A  158A  236D  120A  158A  	fcall	_chuoi_kytu
  1678     0E7D                     l3491:
  1679                           
  1680                           ;./menu.h: 357:         lenh_themthe();;./menu.h: 358:     }
  1681     0E7D  120A  158A  21C0  120A  158A  	fcall	_switch_press_scan
  1682     0E82  1283               	bcf	3,5	;RP0=0, select bank0
  1683     0E83  1303               	bcf	3,6	;RP1=0, select bank0
  1684     0E84  00DD               	movwf	taplenh_menu@nut
  1685     0E85                     l3495:	
  1686                           ;./menu.h: 359:     if(a=='C'){
  1687                           
  1688                           
  1689                           ;./menu.h: 359:     if(a=='C'){
  1690     0E85  3044               	movlw	68
  1691     0E86  065D               	xorwf	taplenh_menu@nut,w
  1692     0E87  1903               	btfsc	3,2
  1693     0E88  2E8A               	goto	u2631
  1694     0E89  2E8B               	goto	u2630
  1695     0E8A                     u2631:
  1696     0E8A  2E7D               	goto	l3491
  1697     0E8B                     u2630:
  1698     0E8B                     l3497:
  1699                           
  1700                           ;./menu.h: 362:         PORTAbits.RA1 = 0;
  1701     0E8B  3041               	movlw	65
  1702     0E8C  065D               	xorwf	taplenh_menu@nut,w
  1703     0E8D  1D03               	btfss	3,2
  1704     0E8E  2E90               	goto	u2641
  1705     0E8F  2E91               	goto	u2640
  1706     0E90                     u2641:
  1707     0E90  2E96               	goto	l3501
  1708     0E91                     u2640:
  1709     0E91                     l3499:
  1710                           
  1711                           ;./menu.h: 363:         lenh_xoathe();
  1712     0E91  120A  158A  2701  120A  158A  	fcall	_lenh_mocua_quetthe
  1713     0E96                     l3501:
  1714                           
  1715                           ;./menu.h: 365:     if(a=='D'){
  1716     0E96  3042               	movlw	66
  1717     0E97  1283               	bcf	3,5	;RP0=0, select bank0
  1718     0E98  1303               	bcf	3,6	;RP1=0, select bank0
  1719     0E99  065D               	xorwf	taplenh_menu@nut,w
  1720     0E9A  1D03               	btfss	3,2
  1721     0E9B  2E9D               	goto	u2651
  1722     0E9C  2E9E               	goto	u2650
  1723     0E9D                     u2651:
  1724     0E9D  2EA3               	goto	l3505
  1725     0E9E                     u2650:
  1726     0E9E                     l3503:
  1727                           
  1728                           ;./menu.h: 366:         PORTAbits.RA1 = 1;
  1729     0E9E  120A  118A  2041  120A  158A  	fcall	_lenh_mocua_matkhau
  1730     0EA3                     l3505:
  1731                           
  1732                           ;./menu.h: 369:         lenh_doipass();
  1733     0EA3  3042               	movlw	66
  1734     0EA4  1283               	bcf	3,5	;RP0=0, select bank0
  1735     0EA5  1303               	bcf	3,6	;RP1=0, select bank0
  1736     0EA6  065E               	xorwf	taplenh_menu@a,w
  1737     0EA7  1D03               	btfss	3,2
  1738     0EA8  2EAA               	goto	u2661
  1739     0EA9  2EAB               	goto	u2660
  1740     0EAA                     u2661:
  1741     0EAA  2EC2               	goto	l3515
  1742     0EAB                     u2660:
  1743     0EAB                     l3507:
  1744                           
  1745                           ;./menu.h: 370:     }
  1746     0EAB  1485               	bsf	5,1	;volatile
  1747     0EAC                     l3509:
  1748                           
  1749                           ;./menu.h: 371: }
  1750     0EAC  3003               	movlw	3
  1751     0EAD  1283               	bcf	3,5	;RP0=0, select bank0
  1752     0EAE  1303               	bcf	3,6	;RP1=0, select bank0
  1753     0EAF  00DC               	movwf	??_taplenh_menu+2
  1754     0EB0  308A               	movlw	138
  1755     0EB1  00DB               	movwf	??_taplenh_menu+1
  1756     0EB2  3055               	movlw	85
  1757     0EB3  00DA               	movwf	??_taplenh_menu
  1758     0EB4                     u2947:
  1759     0EB4  0BDA               	decfsz	??_taplenh_menu,f
  1760     0EB5  2EB4               	goto	u2947
  1761     0EB6  0BDB               	decfsz	??_taplenh_menu+1,f
  1762     0EB7  2EB4               	goto	u2947
  1763     0EB8  0BDC               	decfsz	??_taplenh_menu+2,f
  1764     0EB9  2EB4               	goto	u2947
  1765     0EBA                     l3511:
  1766                           
  1767                           ;./menu.h: 372: unsigned char check_dulieu_the(unsigned char number){
  1768     0EBA  1283               	bcf	3,5	;RP0=0, select bank0
  1769     0EBB  1303               	bcf	3,6	;RP1=0, select bank0
  1770     0EBC  1085               	bcf	5,1	;volatile
  1771     0EBD                     l3513:
  1772                           
  1773                           ;./menu.h: 373:     unsigned char h = 0x10;
  1774     0EBD  120A  118A  25B4  120A  158A  	fcall	_lenh_themthe
  1775     0EC2                     l3515:
  1776                           
  1777                           ;./menu.h: 375:     if(readEEPROM(number)==0xFF){
  1778     0EC2  3043               	movlw	67
  1779     0EC3  1283               	bcf	3,5	;RP0=0, select bank0
  1780     0EC4  1303               	bcf	3,6	;RP1=0, select bank0
  1781     0EC5  065E               	xorwf	taplenh_menu@a,w
  1782     0EC6  1D03               	btfss	3,2
  1783     0EC7  2EC9               	goto	u2671
  1784     0EC8  2ECA               	goto	u2670
  1785     0EC9                     u2671:
  1786     0EC9  2EE1               	goto	l3525
  1787     0ECA                     u2670:
  1788     0ECA                     l3517:
  1789                           
  1790                           ;./menu.h: 376:         return 0;
  1791     0ECA  1485               	bsf	5,1	;volatile
  1792     0ECB                     l3519:
  1793                           
  1794                           ;./menu.h: 377:     }
  1795     0ECB  3003               	movlw	3
  1796     0ECC  1283               	bcf	3,5	;RP0=0, select bank0
  1797     0ECD  1303               	bcf	3,6	;RP1=0, select bank0
  1798     0ECE  00DC               	movwf	??_taplenh_menu+2
  1799     0ECF  308A               	movlw	138
  1800     0ED0  00DB               	movwf	??_taplenh_menu+1
  1801     0ED1  3055               	movlw	85
  1802     0ED2  00DA               	movwf	??_taplenh_menu
  1803     0ED3                     u2957:
  1804     0ED3  0BDA               	decfsz	??_taplenh_menu,f
  1805     0ED4  2ED3               	goto	u2957
  1806     0ED5  0BDB               	decfsz	??_taplenh_menu+1,f
  1807     0ED6  2ED3               	goto	u2957
  1808     0ED7  0BDC               	decfsz	??_taplenh_menu+2,f
  1809     0ED8  2ED3               	goto	u2957
  1810     0ED9                     l3521:
  1811                           
  1812                           ;./menu.h: 378:     return 1;
  1813     0ED9  1283               	bcf	3,5	;RP0=0, select bank0
  1814     0EDA  1303               	bcf	3,6	;RP1=0, select bank0
  1815     0EDB  1085               	bcf	5,1	;volatile
  1816     0EDC                     l3523:
  1817                           
  1818                           ;./menu.h: 379: }
  1819     0EDC  120A  158A  231C  120A  158A  	fcall	_lenh_xoathe
  1820     0EE1                     l3525:
  1821     0EE1  3044               	movlw	68
  1822     0EE2  1283               	bcf	3,5	;RP0=0, select bank0
  1823     0EE3  1303               	bcf	3,6	;RP1=0, select bank0
  1824     0EE4  065E               	xorwf	taplenh_menu@a,w
  1825     0EE5  1D03               	btfss	3,2
  1826     0EE6  2EE8               	goto	u2681
  1827     0EE7  2EE9               	goto	u2680
  1828     0EE8                     u2681:
  1829     0EE8  2F00               	goto	l481
  1830     0EE9                     u2680:
  1831     0EE9                     l3527:
  1832     0EE9  1485               	bsf	5,1	;volatile
  1833     0EEA                     l3529:
  1834     0EEA  3003               	movlw	3
  1835     0EEB  1283               	bcf	3,5	;RP0=0, select bank0
  1836     0EEC  1303               	bcf	3,6	;RP1=0, select bank0
  1837     0EED  00DC               	movwf	??_taplenh_menu+2
  1838     0EEE  308A               	movlw	138
  1839     0EEF  00DB               	movwf	??_taplenh_menu+1
  1840     0EF0  3055               	movlw	85
  1841     0EF1  00DA               	movwf	??_taplenh_menu
  1842     0EF2                     u2967:
  1843     0EF2  0BDA               	decfsz	??_taplenh_menu,f
  1844     0EF3  2EF2               	goto	u2967
  1845     0EF4  0BDB               	decfsz	??_taplenh_menu+1,f
  1846     0EF5  2EF2               	goto	u2967
  1847     0EF6  0BDC               	decfsz	??_taplenh_menu+2,f
  1848     0EF7  2EF2               	goto	u2967
  1849     0EF8                     l3531:
  1850     0EF8  1283               	bcf	3,5	;RP0=0, select bank0
  1851     0EF9  1303               	bcf	3,6	;RP1=0, select bank0
  1852     0EFA  1085               	bcf	5,1	;volatile
  1853     0EFB                     l3533:
  1854     0EFB  120A  118A  23FD  120A  158A  	fcall	_lenh_doipass
  1855     0F00                     l481:
  1856     0F00  0008               	return
  1857     0F01                     __end_of_taplenh_menu:
  1858                           
  1859                           	psect	text2
  1860     0B1C                     __ptext2:	
  1861 ;; *************** function _lenh_xoathe *****************
  1862 ;; Defined at:
  1863 ;;		line 256 in file "./menu.h"
  1864 ;; Parameters:    Size  Location     Type
  1865 ;;		None
  1866 ;; Auto vars:     Size  Location     Type
  1867 ;;		None
  1868 ;; Return value:  Size  Location     Type
  1869 ;;                  1    wreg      unsigned char 
  1870 ;; Registers used:
  1871 ;;		wreg, fsr0l, fsr0h, status,2, status,0, btemp+1, pclath, cstack
  1872 ;; Tracked objects:
  1873 ;;		On entry : 0/0
  1874 ;;		On exit  : 0/0
  1875 ;;		Unchanged: 0/0
  1876 ;; Data sizes:     COMMON   BANK0   BANK1   BANK3   BANK2
  1877 ;;      Params:         0       0       0       0       0
  1878 ;;      Locals:         0       0       0       0       0
  1879 ;;      Temps:          3       0       0       0       0
  1880 ;;      Totals:         3       0       0       0       0
  1881 ;;Total ram usage:        3 bytes
  1882 ;; Hardware stack levels used: 1
  1883 ;; Hardware stack levels required when called: 2
  1884 ;; This function calls:
  1885 ;;		_chuoi_kytu
  1886 ;;		_clear_lcd
  1887 ;;		_lenh
  1888 ;; This function is called by:
  1889 ;;		_taplenh_menu
  1890 ;; This function uses a non-reentrant model
  1891 ;;
  1892                           
  1893     0B1C                     _lenh_xoathe:	
  1894                           ;psect for function _lenh_xoathe
  1895                           
  1896     0B1C                     l3289:	
  1897                           ;incstack = 0
  1898                           ; Regs used in _lenh_xoathe: [wreg-fsr0h+status,2+status,0+btemp+1+pclath+cstack]
  1899                           
  1900                           
  1901                           ;./menu.h: 257: 
  1902     0B1C  120A  118A  200C  120A  158A  	fcall	_clear_lcd
  1903                           
  1904                           ;./menu.h: 258: 
  1905     0B21  3084               	movlw	132
  1906     0B22  120A  158A  22B4  120A  158A  	fcall	_lenh
  1907     0B27                     l3291:
  1908                           
  1909                           ;./menu.h: 259:     for(i=0;i<6;i++){
  1910     0B27  3041               	movlw	low (STR_13| (0+32768))
  1911     0B28  00F2               	movwf	chuoi_kytu@a
  1912     0B29  3089               	movlw	high (STR_13| (0+32768))
  1913     0B2A  00F3               	movwf	chuoi_kytu@a+1
  1914     0B2B  120A  158A  236D  120A  158A  	fcall	_chuoi_kytu
  1915     0B30                     l3293:
  1916                           
  1917                           ;./menu.h: 260:         j = j + 0x01;
  1918     0B30  30C0               	movlw	192
  1919     0B31  120A  158A  22B4  120A  158A  	fcall	_lenh
  1920     0B36                     l3295:
  1921                           
  1922                           ;./menu.h: 261:         a[i] = readEEPROM(j);
  1923     0B36  301A               	movlw	26
  1924     0B37  00F7               	movwf	??_lenh_xoathe+2
  1925     0B38  305E               	movlw	94
  1926     0B39  00F6               	movwf	??_lenh_xoathe+1
  1927     0B3A  306E               	movlw	110
  1928     0B3B  00F5               	movwf	??_lenh_xoathe
  1929     0B3C                     u2977:
  1930     0B3C  0BF5               	decfsz	??_lenh_xoathe,f
  1931     0B3D  2B3C               	goto	u2977
  1932     0B3E  0BF6               	decfsz	??_lenh_xoathe+1,f
  1933     0B3F  2B3C               	goto	u2977
  1934     0B40  0BF7               	decfsz	??_lenh_xoathe+2,f
  1935     0B41  2B3C               	goto	u2977
  1936     0B42  0000               	nop
  1937     0B43                     l451:
  1938     0B43  0008               	return
  1939     0B44                     __end_of_lenh_xoathe:
  1940                           
  1941                           	psect	text3
  1942     05B4                     __ptext3:	
  1943 ;; *************** function _lenh_themthe *****************
  1944 ;; Defined at:
  1945 ;;		line 160 in file "./menu.h"
  1946 ;; Parameters:    Size  Location     Type
  1947 ;;		None
  1948 ;; Auto vars:     Size  Location     Type
  1949 ;;  j               1   54[BANK0 ] unsigned char 
  1950 ;;  UID            10   35[BANK0 ] unsigned char [10]
  1951 ;;  i               2   51[BANK0 ] int 
  1952 ;;  TagType         2   49[BANK0 ] unsigned int 
  1953 ;;  h               1   48[BANK0 ] unsigned char 
  1954 ;;  nutnhan         1   47[BANK0 ] unsigned char 
  1955 ;;  number          1   53[BANK0 ] unsigned char 
  1956 ;;  a               6   29[BANK0 ] unsigned char [6]
  1957 ;;  i               2   56[BANK0 ] int 
  1958 ;;  flagmksai       2   45[BANK0 ] int 
  1959 ;;  j               1   55[BANK0 ] unsigned char 
  1960 ;; Return value:  Size  Location     Type
  1961 ;;                  1    wreg      unsigned char 
  1962 ;; Registers used:
  1963 ;;		wreg, fsr0l, fsr0h, status,2, status,0, btemp+1, pclath, cstack
  1964 ;; Tracked objects:
  1965 ;;		On entry : 0/0
  1966 ;;		On exit  : 0/0
  1967 ;;		Unchanged: 0/0
  1968 ;; Data sizes:     COMMON   BANK0   BANK1   BANK3   BANK2
  1969 ;;      Params:         0       0       0       0       0
  1970 ;;      Locals:         0      29       0       0       0
  1971 ;;      Temps:          0       3       0       0       0
  1972 ;;      Totals:         0      32       0       0       0
  1973 ;;Total ram usage:       32 bytes
  1974 ;; Hardware stack levels used: 1
  1975 ;; Hardware stack levels required when called: 6
  1976 ;; This function calls:
  1977 ;;		_MFRC522_ReadCardSerial
  1978 ;;		_MFRC522_isCard
  1979 ;;		___bmul
  1980 ;;		_check_dulieu_the
  1981 ;;		_chuoi_kytu
  1982 ;;		_clear_lcd
  1983 ;;		_du_lieu
  1984 ;;		_failunlock
  1985 ;;		_lenh
  1986 ;;		_readEEPROM
  1987 ;;		_switch_press_scan
  1988 ;;		_writeEEPROM
  1989 ;; This function is called by:
  1990 ;;		_taplenh_menu
  1991 ;; This function uses a non-reentrant model
  1992 ;;
  1993                           
  1994     05B4                     _lenh_themthe:	
  1995                           ;psect for function _lenh_themthe
  1996                           
  1997     05B4                     l3145:	
  1998                           ;incstack = 0
  1999                           ; Regs used in _lenh_themthe: [wreg-fsr0h+status,2+status,0+btemp+1+pclath+cstack]
  2000                           
  2001                           
  2002                           ;./menu.h: 162:     j = 0xF0;
  2003     05B4  1283               	bcf	3,5	;RP0=0, select bank0
  2004     05B5  1303               	bcf	3,6	;RP1=0, select bank0
  2005     05B6  01CD               	clrf	lenh_themthe@flagmksai
  2006     05B7  01CE               	clrf	lenh_themthe@flagmksai+1
  2007     05B8                     l3147:
  2008                           
  2009                           ;./menu.h: 163:     for(i=0;i<6;i++){
  2010     05B8  30F0               	movlw	240
  2011     05B9  00D7               	movwf	lenh_themthe@j
  2012     05BA                     l3149:
  2013                           
  2014                           ;./menu.h: 164:         j = j + 0x01;
  2015     05BA  303D               	movlw	lenh_themthe@a& (0+255)
  2016     05BB  0084               	movwf	4
  2017     05BC  1683               	bsf	3,5	;RP0=1, select bank1
  2018     05BD  1303               	bcf	3,6	;RP1=0, select bank1
  2019     05BE  0826               	movf	lenh_themthe@F1288^(0+128),w
  2020     05BF  1383               	bcf	3,7	;select IRP bank0
  2021     05C0  0080               	movwf	0
  2022     05C1  0A84               	incf	4,f
  2023     05C2  0827               	movf	(lenh_themthe@F1288^(0+128)+1),w
  2024     05C3  0080               	movwf	0
  2025     05C4  0A84               	incf	4,f
  2026     05C5  0828               	movf	(lenh_themthe@F1288^(0+128)+2),w
  2027     05C6  0080               	movwf	0
  2028     05C7  0A84               	incf	4,f
  2029     05C8  0829               	movf	(lenh_themthe@F1288^(0+128)+3),w
  2030     05C9  0080               	movwf	0
  2031     05CA  0A84               	incf	4,f
  2032     05CB  082A               	movf	(lenh_themthe@F1288^(0+128)+4),w
  2033     05CC  0080               	movwf	0
  2034     05CD  0A84               	incf	4,f
  2035     05CE  082B               	movf	(lenh_themthe@F1288^(0+128)+5),w
  2036     05CF  0080               	movwf	0
  2037     05D0                     l3151:
  2038                           
  2039                           ;./menu.h: 165:         a[i]= readEEPROM(j);
  2040     05D0  120A  118A  200C  120A  118A  	fcall	_clear_lcd
  2041     05D5                     l3153:
  2042                           
  2043                           ;./menu.h: 166:     }
  2044     05D5  3080               	movlw	128
  2045     05D6  120A  158A  22B4  120A  118A  	fcall	_lenh
  2046     05DB                     l3155:
  2047                           
  2048                           ;./menu.h: 167: 
  2049     05DB  302E               	movlw	low (STR_6| (0+32768))
  2050     05DC  00F2               	movwf	chuoi_kytu@a
  2051     05DD  3089               	movlw	high (STR_6| (0+32768))
  2052     05DE  00F3               	movwf	chuoi_kytu@a+1
  2053     05DF  120A  158A  236D  120A  118A  	fcall	_chuoi_kytu
  2054     05E4                     l3157:
  2055                           
  2056                           ;./menu.h: 168:     for(i=0;i<6;i++){
  2057     05E4  30E0               	movlw	224
  2058     05E5  120A  158A  2193  120A  118A  	fcall	_readEEPROM
  2059     05EA  3AFF               	xorlw	255
  2060     05EB  1D03               	skipz
  2061     05EC  2DEE               	goto	u2401
  2062     05ED  2DEF               	goto	u2400
  2063     05EE                     u2401:
  2064     05EE  2E26               	goto	l3177
  2065     05EF                     u2400:
  2066     05EF                     l3159:
  2067                           
  2068                           ;./menu.h: 169:         char nutnhan = switch_press_scan();
  2069     05EF  1283               	bcf	3,5	;RP0=0, select bank0
  2070     05F0  1303               	bcf	3,6	;RP1=0, select bank0
  2071     05F1  1405               	bsf	5,0	;volatile
  2072     05F2                     l3161:
  2073                           
  2074                           ;./menu.h: 170:         du_lieu(nutnhan);
  2075     05F2  3003               	movlw	3
  2076     05F3  1283               	bcf	3,5	;RP0=0, select bank0
  2077     05F4  1303               	bcf	3,6	;RP1=0, select bank0
  2078     05F5  00BC               	movwf	??_lenh_themthe+2
  2079     05F6  308A               	movlw	138
  2080     05F7  00BB               	movwf	??_lenh_themthe+1
  2081     05F8  3055               	movlw	85
  2082     05F9  00BA               	movwf	??_lenh_themthe
  2083     05FA                     u2987:
  2084     05FA  0BBA               	decfsz	??_lenh_themthe,f
  2085     05FB  2DFA               	goto	u2987
  2086     05FC  0BBB               	decfsz	??_lenh_themthe+1,f
  2087     05FD  2DFA               	goto	u2987
  2088     05FE  0BBC               	decfsz	??_lenh_themthe+2,f
  2089     05FF  2DFA               	goto	u2987
  2090     0600                     l3163:
  2091                           
  2092                           ;./menu.h: 171:         if(nutnhan != a[i]){
  2093     0600  1283               	bcf	3,5	;RP0=0, select bank0
  2094     0601  1303               	bcf	3,6	;RP1=0, select bank0
  2095     0602  01D8               	clrf	lenh_themthe@i
  2096     0603  01D9               	clrf	lenh_themthe@i+1
  2097     0604                     l3169:
  2098                           
  2099                           ;./menu.h: 172:             flagmksai = 1;
  2100     0604  1283               	bcf	3,5	;RP0=0, select bank0
  2101     0605  1303               	bcf	3,6	;RP1=0, select bank0
  2102     0606  0857               	movf	lenh_themthe@j,w
  2103     0607  3E01               	addlw	1
  2104     0608  00D7               	movwf	lenh_themthe@j
  2105     0609                     l3171:
  2106                           
  2107                           ;./menu.h: 173:         }
  2108     0609  3030               	movlw	48
  2109     060A  00F0               	movwf	writeEEPROM@DATA
  2110     060B  0857               	movf	lenh_themthe@j,w
  2111     060C  120A  158A  2266  120A  118A  	fcall	_writeEEPROM
  2112     0611                     l3173:
  2113                           
  2114                           ;./menu.h: 174:         PORTAbits.RA0 = 1;
  2115     0611  3001               	movlw	1
  2116     0612  1283               	bcf	3,5	;RP0=0, select bank0
  2117     0613  1303               	bcf	3,6	;RP1=0, select bank0
  2118     0614  07D8               	addwf	lenh_themthe@i,f
  2119     0615  1803               	skipnc
  2120     0616  0AD9               	incf	lenh_themthe@i+1,f
  2121     0617  3000               	movlw	0
  2122     0618  07D9               	addwf	lenh_themthe@i+1,f
  2123     0619                     l3175:
  2124     0619  0859               	movf	lenh_themthe@i+1,w
  2125     061A  3A80               	xorlw	128
  2126     061B  00FF               	movwf	btemp+1
  2127     061C  3080               	movlw	128
  2128     061D  027F               	subwf	btemp+1,w
  2129     061E  1D03               	skipz
  2130     061F  2E22               	goto	u2415
  2131     0620  3006               	movlw	6
  2132     0621  0258               	subwf	lenh_themthe@i,w
  2133     0622                     u2415:
  2134     0622  1C03               	skipc
  2135     0623  2E25               	goto	u2411
  2136     0624  2E26               	goto	u2410
  2137     0625                     u2411:
  2138     0625  2E04               	goto	l3169
  2139     0626                     u2410:
  2140     0626                     l3177:
  2141                           
  2142                           ;./menu.h: 177:     }
  2143     0626  30C0               	movlw	192
  2144     0627  120A  158A  22B4  120A  118A  	fcall	_lenh
  2145     062C                     l3179:
  2146                           
  2147                           ;./menu.h: 178:     if(flagmksai != 1){
  2148     062C  30F0               	movlw	240
  2149     062D  1283               	bcf	3,5	;RP0=0, select bank0
  2150     062E  1303               	bcf	3,6	;RP1=0, select bank0
  2151     062F  00D7               	movwf	lenh_themthe@j
  2152     0630                     l3181:
  2153                           
  2154                           ;./menu.h: 179:     clear_lcd();
  2155     0630  01D8               	clrf	lenh_themthe@i
  2156     0631  01D9               	clrf	lenh_themthe@i+1
  2157     0632                     l3187:
  2158                           
  2159                           ;./menu.h: 180:     lenh(0x84);
  2160     0632  1283               	bcf	3,5	;RP0=0, select bank0
  2161     0633  1303               	bcf	3,6	;RP1=0, select bank0
  2162     0634  0857               	movf	lenh_themthe@j,w
  2163     0635  3E01               	addlw	1
  2164     0636  00D7               	movwf	lenh_themthe@j
  2165     0637                     l3189:
  2166                           
  2167                           ;./menu.h: 181:     chuoi_kytu("Them the");
  2168     0637  0858               	movf	lenh_themthe@i,w
  2169     0638  3E3D               	addlw	(low (lenh_themthe@a| 0))& (0+255)
  2170     0639  0084               	movwf	4
  2171     063A  0857               	movf	lenh_themthe@j,w
  2172     063B  120A  158A  2193  120A  118A  	fcall	_readEEPROM
  2173     0640  1383               	bcf	3,7	;select IRP bank0
  2174     0641  0080               	movwf	0
  2175     0642                     l3191:
  2176                           
  2177                           ;./menu.h: 182:     lenh(0xc0);
  2178     0642  3001               	movlw	1
  2179     0643  1283               	bcf	3,5	;RP0=0, select bank0
  2180     0644  1303               	bcf	3,6	;RP1=0, select bank0
  2181     0645  07D8               	addwf	lenh_themthe@i,f
  2182     0646  1803               	skipnc
  2183     0647  0AD9               	incf	lenh_themthe@i+1,f
  2184     0648  3000               	movlw	0
  2185     0649  07D9               	addwf	lenh_themthe@i+1,f
  2186     064A                     l3193:
  2187     064A  0859               	movf	lenh_themthe@i+1,w
  2188     064B  3A80               	xorlw	128
  2189     064C  00FF               	movwf	btemp+1
  2190     064D  3080               	movlw	128
  2191     064E  027F               	subwf	btemp+1,w
  2192     064F  1D03               	skipz
  2193     0650  2E53               	goto	u2425
  2194     0651  3006               	movlw	6
  2195     0652  0258               	subwf	lenh_themthe@i,w
  2196     0653                     u2425:
  2197     0653  1C03               	skipc
  2198     0654  2E56               	goto	u2421
  2199     0655  2E57               	goto	u2420
  2200     0656                     u2421:
  2201     0656  2E32               	goto	l3187
  2202     0657                     u2420:
  2203     0657                     l3195:
  2204                           
  2205                           ;./menu.h: 184:     lenh(0x94);
  2206     0657  1283               	bcf	3,5	;RP0=0, select bank0
  2207     0658  1303               	bcf	3,6	;RP1=0, select bank0
  2208     0659  01D8               	clrf	lenh_themthe@i
  2209     065A  01D9               	clrf	lenh_themthe@i+1
  2210     065B                     l3201:
  2211                           
  2212                           ;./menu.h: 185:     unsigned char number;
  2213     065B  120A  158A  21C0  120A  118A  	fcall	_switch_press_scan
  2214     0660  1283               	bcf	3,5	;RP0=0, select bank0
  2215     0661  1303               	bcf	3,6	;RP1=0, select bank0
  2216     0662  00CF               	movwf	lenh_themthe@nutnhan
  2217                           
  2218                           ;./menu.h: 186:     number = switch_press_scan();
  2219     0663  084F               	movf	lenh_themthe@nutnhan,w
  2220     0664  120A  158A  22D4  120A  118A  	fcall	_du_lieu
  2221     0669                     l3203:
  2222                           
  2223                           ;./menu.h: 187:     if(check_dulieu_the(number) == 1){
  2224     0669  1283               	bcf	3,5	;RP0=0, select bank0
  2225     066A  1303               	bcf	3,6	;RP1=0, select bank0
  2226     066B  0858               	movf	lenh_themthe@i,w
  2227     066C  3E3D               	addlw	(low (lenh_themthe@a| 0))& (0+255)
  2228     066D  0084               	movwf	4
  2229     066E  1383               	bcf	3,7	;select IRP bank0
  2230     066F  0800               	movf	0,w
  2231     0670  064F               	xorwf	lenh_themthe@nutnhan,w
  2232     0671  1903               	skipnz
  2233     0672  2E74               	goto	u2431
  2234     0673  2E75               	goto	u2430
  2235     0674                     u2431:
  2236     0674  2E79               	goto	l3207
  2237     0675                     u2430:
  2238     0675                     l3205:
  2239                           
  2240                           ;./menu.h: 188:         clear_lcd();
  2241     0675  3001               	movlw	1
  2242     0676  00CD               	movwf	lenh_themthe@flagmksai
  2243     0677  3000               	movlw	0
  2244     0678  00CE               	movwf	lenh_themthe@flagmksai+1
  2245     0679                     l3207:
  2246                           
  2247                           ;./menu.h: 190:         chuoi_kytu("The da ton tai");
  2248     0679  1405               	bsf	5,0	;volatile
  2249                           
  2250                           ;./menu.h: 191:         _delay((unsigned long)((1000)*(20000000/4000.0)));
  2251     067A  3003               	movlw	3
  2252     067B  1283               	bcf	3,5	;RP0=0, select bank0
  2253     067C  1303               	bcf	3,6	;RP1=0, select bank0
  2254     067D  00BC               	movwf	??_lenh_themthe+2
  2255     067E  308A               	movlw	138
  2256     067F  00BB               	movwf	??_lenh_themthe+1
  2257     0680  3055               	movlw	85
  2258     0681  00BA               	movwf	??_lenh_themthe
  2259     0682                     u2997:
  2260     0682  0BBA               	decfsz	??_lenh_themthe,f
  2261     0683  2E82               	goto	u2997
  2262     0684  0BBB               	decfsz	??_lenh_themthe+1,f
  2263     0685  2E82               	goto	u2997
  2264     0686  0BBC               	decfsz	??_lenh_themthe+2,f
  2265     0687  2E82               	goto	u2997
  2266     0688                     l3209:
  2267                           
  2268                           ;./menu.h: 192:         return 0;
  2269     0688  1283               	bcf	3,5	;RP0=0, select bank0
  2270     0689  1303               	bcf	3,6	;RP1=0, select bank0
  2271     068A  1005               	bcf	5,0	;volatile
  2272                           
  2273                           ;./menu.h: 193:     }
  2274     068B  3001               	movlw	1
  2275     068C  07D8               	addwf	lenh_themthe@i,f
  2276     068D  1803               	skipnc
  2277     068E  0AD9               	incf	lenh_themthe@i+1,f
  2278     068F  3000               	movlw	0
  2279     0690  07D9               	addwf	lenh_themthe@i+1,f
  2280     0691                     l3211:
  2281     0691  0859               	movf	lenh_themthe@i+1,w
  2282     0692  3A80               	xorlw	128
  2283     0693  00FF               	movwf	btemp+1
  2284     0694  3080               	movlw	128
  2285     0695  027F               	subwf	btemp+1,w
  2286     0696  1D03               	skipz
  2287     0697  2E9A               	goto	u2445
  2288     0698  3006               	movlw	6
  2289     0699  0258               	subwf	lenh_themthe@i,w
  2290     069A                     u2445:
  2291     069A  1C03               	skipc
  2292     069B  2E9D               	goto	u2441
  2293     069C  2E9E               	goto	u2440
  2294     069D                     u2441:
  2295     069D  2E5B               	goto	l3201
  2296     069E                     u2440:
  2297     069E                     l3213:
  2298                           
  2299                           ;./menu.h: 194:     if(check_dulieu_the(number)==0){
  2300     069E  1283               	bcf	3,5	;RP0=0, select bank0
  2301     069F  1303               	bcf	3,6	;RP1=0, select bank0
  2302     06A0  034D               	decf	lenh_themthe@flagmksai,w
  2303     06A1  044E               	iorwf	lenh_themthe@flagmksai+1,w
  2304     06A2  1903               	btfsc	3,2
  2305     06A3  2EA5               	goto	u2451
  2306     06A4  2EA6               	goto	u2450
  2307     06A5                     u2451:
  2308     06A5  2FD5               	goto	l3285
  2309     06A6                     u2450:
  2310     06A6                     l3215:
  2311                           
  2312                           ;./menu.h: 195:         clear_lcd();
  2313     06A6  120A  118A  200C  120A  118A  	fcall	_clear_lcd
  2314                           
  2315                           ;./menu.h: 196:         lenh(0xc0);
  2316     06AB  3084               	movlw	132
  2317     06AC  120A  158A  22B4  120A  118A  	fcall	_lenh
  2318     06B1                     l3217:
  2319                           
  2320                           ;./menu.h: 197:         chuoi_kytu("Xin moi quet the");
  2321     06B1  3038               	movlw	low (STR_8| (0+32768))
  2322     06B2  00F2               	movwf	chuoi_kytu@a
  2323     06B3  3089               	movlw	high (STR_8| (0+32768))
  2324     06B4  00F3               	movwf	chuoi_kytu@a+1
  2325     06B5  120A  158A  236D  120A  118A  	fcall	_chuoi_kytu
  2326     06BA                     l3219:
  2327                           
  2328                           ;./menu.h: 198:         int i;
  2329     06BA  30C0               	movlw	192
  2330     06BB  120A  158A  22B4  120A  118A  	fcall	_lenh
  2331                           
  2332                           ;./menu.h: 199:         unsigned char h = 0x10;
  2333     06C0  3015               	movlw	low (STR_9| (0+32768))
  2334     06C1  00F2               	movwf	chuoi_kytu@a
  2335     06C2  3088               	movlw	high (STR_9| (0+32768))
  2336     06C3  00F3               	movwf	chuoi_kytu@a+1
  2337     06C4  120A  158A  236D  120A  118A  	fcall	_chuoi_kytu
  2338     06C9                     l3221:
  2339                           
  2340                           ;./menu.h: 200:         unsigned int TagType;
  2341     06C9  3094               	movlw	148
  2342     06CA  120A  158A  22B4  120A  118A  	fcall	_lenh
  2343     06CF                     l3223:
  2344                           
  2345                           ;./menu.h: 201:         unsigned char UID[10];;./menu.h: 202:     while(1){
  2346     06CF  120A  158A  21C0  120A  118A  	fcall	_switch_press_scan
  2347     06D4  1283               	bcf	3,5	;RP0=0, select bank0
  2348     06D5  1303               	bcf	3,6	;RP1=0, select bank0
  2349     06D6  00D5               	movwf	lenh_themthe@number
  2350     06D7                     l3225:
  2351                           
  2352                           ;./menu.h: 203:         if (MFRC522_isCard( &TagType ))
  2353     06D7  0855               	movf	lenh_themthe@number,w
  2354     06D8  120A  158A  229A  120A  118A  	fcall	_check_dulieu_the
  2355     06DD  3A01               	xorlw	1
  2356     06DE  1D03               	skipz
  2357     06DF  2EE1               	goto	u2461
  2358     06E0  2EE2               	goto	u2460
  2359     06E1                     u2461:
  2360     06E1  2F06               	goto	l3235
  2361     06E2                     u2460:
  2362     06E2                     l3227:
  2363                           
  2364                           ;./menu.h: 204:         {
  2365     06E2  120A  118A  200C  120A  118A  	fcall	_clear_lcd
  2366                           
  2367                           ;./menu.h: 205:             if( MFRC522_ReadCardSerial( &UID ) )
  2368     06E7  3084               	movlw	132
  2369     06E8  120A  158A  22B4  120A  118A  	fcall	_lenh
  2370     06ED                     l3229:
  2371                           
  2372                           ;./menu.h: 206:             {
  2373     06ED  30DE               	movlw	low (STR_10| (0+32768))
  2374     06EE  00F2               	movwf	chuoi_kytu@a
  2375     06EF  3088               	movlw	high (STR_10| (0+32768))
  2376     06F0  00F3               	movwf	chuoi_kytu@a+1
  2377     06F1  120A  158A  236D  120A  118A  	fcall	_chuoi_kytu
  2378     06F6                     l3231:
  2379                           
  2380                           ;./menu.h: 207:                unsigned char j = number*h + 0x00;
  2381     06F6  301A               	movlw	26
  2382     06F7  1283               	bcf	3,5	;RP0=0, select bank0
  2383     06F8  1303               	bcf	3,6	;RP1=0, select bank0
  2384     06F9  00BC               	movwf	??_lenh_themthe+2
  2385     06FA  305E               	movlw	94
  2386     06FB  00BB               	movwf	??_lenh_themthe+1
  2387     06FC  306D               	movlw	109
  2388     06FD  00BA               	movwf	??_lenh_themthe
  2389     06FE                     u3007:
  2390     06FE  0BBA               	decfsz	??_lenh_themthe,f
  2391     06FF  2EFE               	goto	u3007
  2392     0700  0BBB               	decfsz	??_lenh_themthe+1,f
  2393     0701  2EFE               	goto	u3007
  2394     0702  0BBC               	decfsz	??_lenh_themthe+2,f
  2395     0703  2EFE               	goto	u3007
  2396     0704  2F05               	nop2
  2397     0705  2FE0               	goto	l437
  2398     0706                     l3235:
  2399                           
  2400                           ;./menu.h: 210:                    j = j + 0x01;
  2401     0706  1283               	bcf	3,5	;RP0=0, select bank0
  2402     0707  1303               	bcf	3,6	;RP1=0, select bank0
  2403     0708  0855               	movf	lenh_themthe@number,w
  2404     0709  120A  158A  229A  120A  118A  	fcall	_check_dulieu_the
  2405     070E  3A00               	xorlw	0
  2406     070F  1D03               	skipz
  2407     0710  2F12               	goto	u2471
  2408     0711  2F13               	goto	u2470
  2409     0712                     u2471:
  2410     0712  2FC0               	goto	l3279
  2411     0713                     u2470:
  2412     0713                     l3237:
  2413                           
  2414                           ;./menu.h: 211:                }
  2415     0713  120A  118A  200C  120A  118A  	fcall	_clear_lcd
  2416                           
  2417                           ;./menu.h: 212:                 j = number*h + 0x0A;
  2418     0718  30C0               	movlw	192
  2419     0719  120A  158A  22B4  120A  118A  	fcall	_lenh
  2420     071E                     l3239:
  2421                           
  2422                           ;./menu.h: 213:                 writeEEPROM(j,0x00);
  2423     071E  30AC               	movlw	low (STR_5| (0+32768))
  2424     071F  00F2               	movwf	chuoi_kytu@a
  2425     0720  3088               	movlw	high (STR_5| (0+32768))
  2426     0721  00F3               	movwf	chuoi_kytu@a+1
  2427     0722  120A  158A  236D  120A  118A  	fcall	_chuoi_kytu
  2428     0727                     l3241:
  2429                           
  2430                           ;./menu.h: 214:                 if(readEEPROM(j)==0x00){;./menu.h: 215:                 
      +                              PORTAbits.RA0 = 1;
  2431     0727  3010               	movlw	16
  2432     0728  1283               	bcf	3,5	;RP0=0, select bank0
  2433     0729  1303               	bcf	3,6	;RP1=0, select bank0
  2434     072A  00D0               	movwf	lenh_themthe@h
  2435     072B                     l3243:
  2436                           
  2437                           ;./menu.h: 219:                     PORTAbits.RA0 = 0;
  2438     072B  3051               	movlw	(low (lenh_themthe@TagType| 0))& (0+255)
  2439     072C  120A  158A  21E3  120A  118A  	fcall	_MFRC522_isCard
  2440     0731  3A00               	xorlw	0
  2441     0732  1903               	skipnz
  2442     0733  2F35               	goto	u2481
  2443     0734  2F36               	goto	u2480
  2444     0735                     u2481:
  2445     0735  2F2B               	goto	l3243
  2446     0736                     u2480:
  2447     0736                     l3245:
  2448                           
  2449                           ;./menu.h: 220:                     PORTAbits.RA1 = 0;;./menu.h: 221:                   
      +                            PORTAbits.RA2 = 0;
  2450     0736  3043               	movlw	(low (lenh_themthe@UID| 0))& (0+255)
  2451     0737  120A  158A  2280  120A  118A  	fcall	_MFRC522_ReadCardSerial
  2452     073C  3A00               	xorlw	0
  2453     073D  1903               	skipnz
  2454     073E  2F40               	goto	u2491
  2455     073F  2F41               	goto	u2490
  2456     0740                     u2491:
  2457     0740  2F2B               	goto	l3243
  2458     0741                     u2490:
  2459     0741                     l3247:
  2460                           
  2461                           ;./menu.h: 222:                 };./menu.h: 223:                 _delay((unsigned long)(
      +                          (1000)*(20000000/4000.0)));
  2462     0741  1283               	bcf	3,5	;RP0=0, select bank0
  2463     0742  1303               	bcf	3,6	;RP1=0, select bank0
  2464     0743  0850               	movf	lenh_themthe@h,w
  2465     0744  00F0               	movwf	___bmul@multiplicand
  2466     0745  0855               	movf	lenh_themthe@number,w
  2467     0746  120A  158A  2208  120A  118A  	fcall	___bmul
  2468     074B  1283               	bcf	3,5	;RP0=0, select bank0
  2469     074C  1303               	bcf	3,6	;RP1=0, select bank0
  2470     074D  00D6               	movwf	lenh_themthe@j_393
  2471     074E                     l3249:
  2472                           
  2473                           ;./menu.h: 224:                 break;
  2474     074E  01D3               	clrf	lenh_themthe@i_389
  2475     074F  01D4               	clrf	lenh_themthe@i_389+1
  2476     0750                     l3255:
  2477                           
  2478                           ;./menu.h: 225:                }
  2479     0750  1283               	bcf	3,5	;RP0=0, select bank0
  2480     0751  1303               	bcf	3,6	;RP1=0, select bank0
  2481     0752  0853               	movf	lenh_themthe@i_389,w
  2482     0753  3E43               	addlw	(low (lenh_themthe@UID| 0))& (0+255)
  2483     0754  0084               	movwf	4
  2484     0755  1383               	bcf	3,7	;select IRP bank0
  2485     0756  0800               	movf	0,w
  2486     0757  00F0               	movwf	writeEEPROM@DATA
  2487     0758  0856               	movf	lenh_themthe@j_393,w
  2488     0759  120A  158A  2266  120A  118A  	fcall	_writeEEPROM
  2489     075E                     l3257:
  2490                           
  2491                           ;./menu.h: 226:            }
  2492     075E  1283               	bcf	3,5	;RP0=0, select bank0
  2493     075F  1303               	bcf	3,6	;RP1=0, select bank0
  2494     0760  0856               	movf	lenh_themthe@j_393,w
  2495     0761  3E01               	addlw	1
  2496     0762  00D6               	movwf	lenh_themthe@j_393
  2497     0763                     l3259:
  2498                           
  2499                           ;./menu.h: 227:         }
  2500     0763  3001               	movlw	1
  2501     0764  07D3               	addwf	lenh_themthe@i_389,f
  2502     0765  1803               	skipnc
  2503     0766  0AD4               	incf	lenh_themthe@i_389+1,f
  2504     0767  3000               	movlw	0
  2505     0768  07D4               	addwf	lenh_themthe@i_389+1,f
  2506     0769                     l3261:
  2507     0769  0854               	movf	lenh_themthe@i_389+1,w
  2508     076A  3A80               	xorlw	128
  2509     076B  00FF               	movwf	btemp+1
  2510     076C  3080               	movlw	128
  2511     076D  027F               	subwf	btemp+1,w
  2512     076E  1D03               	skipz
  2513     076F  2F72               	goto	u2505
  2514     0770  300A               	movlw	10
  2515     0771  0253               	subwf	lenh_themthe@i_389,w
  2516     0772                     u2505:
  2517     0772  1C03               	skipc
  2518     0773  2F75               	goto	u2501
  2519     0774  2F76               	goto	u2500
  2520     0775                     u2501:
  2521     0775  2F50               	goto	l3255
  2522     0776                     u2500:
  2523     0776                     l3263:
  2524                           
  2525                           ;./menu.h: 228:     }
  2526     0776  1283               	bcf	3,5	;RP0=0, select bank0
  2527     0777  1303               	bcf	3,6	;RP1=0, select bank0
  2528     0778  0850               	movf	lenh_themthe@h,w
  2529     0779  00F0               	movwf	___bmul@multiplicand
  2530     077A  0855               	movf	lenh_themthe@number,w
  2531     077B  120A  158A  2208  120A  118A  	fcall	___bmul
  2532     0780  3E0A               	addlw	10
  2533     0781  1283               	bcf	3,5	;RP0=0, select bank0
  2534     0782  1303               	bcf	3,6	;RP1=0, select bank0
  2535     0783  00D6               	movwf	lenh_themthe@j_393
  2536     0784                     l3265:
  2537                           
  2538                           ;./menu.h: 229:     clear_lcd();
  2539     0784  01F0               	clrf	writeEEPROM@DATA
  2540     0785  0856               	movf	lenh_themthe@j_393,w
  2541     0786  120A  158A  2266  120A  118A  	fcall	_writeEEPROM
  2542     078B                     l3267:
  2543                           
  2544                           ;./menu.h: 230:     lenh(0xc0);
  2545     078B  1283               	bcf	3,5	;RP0=0, select bank0
  2546     078C  1303               	bcf	3,6	;RP1=0, select bank0
  2547     078D  0856               	movf	lenh_themthe@j_393,w
  2548     078E  120A  158A  2193  120A  118A  	fcall	_readEEPROM
  2549     0793  3A00               	xorlw	0
  2550     0794  1D03               	skipz
  2551     0795  2F97               	goto	u2511
  2552     0796  2F98               	goto	u2510
  2553     0797                     u2511:
  2554     0797  2FB1               	goto	l444
  2555     0798                     u2510:
  2556     0798                     l3269:
  2557                           
  2558                           ;./menu.h: 231:     chuoi_kytu("Them the thanh cong");
  2559     0798  1283               	bcf	3,5	;RP0=0, select bank0
  2560     0799  1303               	bcf	3,6	;RP1=0, select bank0
  2561     079A  1405               	bsf	5,0	;volatile
  2562                           
  2563                           ;./menu.h: 232:     _delay((unsigned long)((1000)*(20000000/4000.0)));
  2564     079B  1485               	bsf	5,1	;volatile
  2565                           
  2566                           ;./menu.h: 233:     }else if(flagmksai == 1){
  2567     079C  1505               	bsf	5,2	;volatile
  2568     079D                     l3271:
  2569                           
  2570                           ;./menu.h: 234:         failunlock();
  2571     079D  300D               	movlw	13
  2572     079E  1283               	bcf	3,5	;RP0=0, select bank0
  2573     079F  1303               	bcf	3,6	;RP1=0, select bank0
  2574     07A0  00BC               	movwf	??_lenh_themthe+2
  2575     07A1  30AF               	movlw	175
  2576     07A2  00BB               	movwf	??_lenh_themthe+1
  2577     07A3  30B5               	movlw	181
  2578     07A4  00BA               	movwf	??_lenh_themthe
  2579     07A5                     u3017:
  2580     07A5  0BBA               	decfsz	??_lenh_themthe,f
  2581     07A6  2FA5               	goto	u3017
  2582     07A7  0BBB               	decfsz	??_lenh_themthe+1,f
  2583     07A8  2FA5               	goto	u3017
  2584     07A9  0BBC               	decfsz	??_lenh_themthe+2,f
  2585     07AA  2FA5               	goto	u3017
  2586     07AB  2FAC               	nop2
  2587     07AC                     l3273:
  2588                           
  2589                           ;./menu.h: 235:     }
  2590     07AC  1283               	bcf	3,5	;RP0=0, select bank0
  2591     07AD  1303               	bcf	3,6	;RP1=0, select bank0
  2592     07AE  1005               	bcf	5,0	;volatile
  2593     07AF                     l3275:
  2594                           
  2595                           ;./menu.h: 236: 
  2596     07AF  1085               	bcf	5,1	;volatile
  2597     07B0                     l3277:
  2598                           
  2599                           ;./menu.h: 237: 
  2600     07B0  1105               	bcf	5,2	;volatile
  2601     07B1                     l444:	
  2602                           ;./menu.h: 238: 
  2603                           
  2604                           
  2605                           ;./menu.h: 239: }
  2606     07B1  301A               	movlw	26
  2607     07B2  1283               	bcf	3,5	;RP0=0, select bank0
  2608     07B3  1303               	bcf	3,6	;RP1=0, select bank0
  2609     07B4  00BC               	movwf	??_lenh_themthe+2
  2610     07B5  305E               	movlw	94
  2611     07B6  00BB               	movwf	??_lenh_themthe+1
  2612     07B7  306D               	movlw	109
  2613     07B8  00BA               	movwf	??_lenh_themthe
  2614     07B9                     u3027:
  2615     07B9  0BBA               	decfsz	??_lenh_themthe,f
  2616     07BA  2FB9               	goto	u3027
  2617     07BB  0BBB               	decfsz	??_lenh_themthe+1,f
  2618     07BC  2FB9               	goto	u3027
  2619     07BD  0BBC               	decfsz	??_lenh_themthe+2,f
  2620     07BE  2FB9               	goto	u3027
  2621     07BF  2FC0               	nop2
  2622     07C0                     l3279:	
  2623                           ;./menu.h: 240: unsigned char lenh_xoathe(){
  2624                           
  2625                           
  2626                           ;./menu.h: 245:     _delay((unsigned long)((1000)*(20000000/4000.0)));
  2627     07C0  120A  118A  200C  120A  118A  	fcall	_clear_lcd
  2628                           
  2629                           ;./menu.h: 246: }
  2630     07C5  30C0               	movlw	192
  2631     07C6  120A  158A  22B4  120A  118A  	fcall	_lenh
  2632     07CB                     l3281:
  2633                           
  2634                           ;./menu.h: 247: unsigned char lenh_doipass(){
  2635     07CB  303D               	movlw	low (STR_12| (0+32768))
  2636     07CC  00F2               	movwf	chuoi_kytu@a
  2637     07CD  3088               	movlw	high (STR_12| (0+32768))
  2638     07CE  00F3               	movwf	chuoi_kytu@a+1
  2639     07CF  120A  158A  236D  120A  118A  	fcall	_chuoi_kytu
  2640     07D4  2EF6               	goto	l3231
  2641     07D5                     l3285:
  2642     07D5  034D               	decf	lenh_themthe@flagmksai,w
  2643     07D6  044E               	iorwf	lenh_themthe@flagmksai+1,w
  2644     07D7  1D03               	btfss	3,2
  2645     07D8  2FDA               	goto	u2521
  2646     07D9  2FDB               	goto	u2520
  2647     07DA                     u2521:
  2648     07DA  2FE0               	goto	l437
  2649     07DB                     u2520:
  2650     07DB                     l3287:
  2651                           
  2652                           ;./menu.h: 250:     char a[6] = {'0', '0', '0', '0', '0', '0'};
  2653     07DB  120A  158A  2454  120A  118A  	fcall	_failunlock
  2654     07E0                     l437:
  2655     07E0  0008               	return
  2656     07E1                     __end_of_lenh_themthe:
  2657                           
  2658                           	psect	text4
  2659     0A9A                     __ptext4:	
  2660 ;; *************** function _check_dulieu_the *****************
  2661 ;; Defined at:
  2662 ;;		line 388 in file "./menu.h"
  2663 ;; Parameters:    Size  Location     Type
  2664 ;;  number          1    wreg     unsigned char 
  2665 ;; Auto vars:     Size  Location     Type
  2666 ;;  number          1    3[COMMON] unsigned char 
  2667 ;;  h               1    0        unsigned char 
  2668 ;; Return value:  Size  Location     Type
  2669 ;;                  1    wreg      unsigned char 
  2670 ;; Registers used:
  2671 ;;		wreg, status,2, status,0, btemp+1, pclath, cstack
  2672 ;; Tracked objects:
  2673 ;;		On entry : 0/0
  2674 ;;		On exit  : 0/0
  2675 ;;		Unchanged: 0/0
  2676 ;; Data sizes:     COMMON   BANK0   BANK1   BANK3   BANK2
  2677 ;;      Params:         0       0       0       0       0
  2678 ;;      Locals:         1       0       0       0       0
  2679 ;;      Temps:          0       0       0       0       0
  2680 ;;      Totals:         1       0       0       0       0
  2681 ;;Total ram usage:        1 bytes
  2682 ;; Hardware stack levels used: 1
  2683 ;; Hardware stack levels required when called: 1
  2684 ;; This function calls:
  2685 ;;		___bmul
  2686 ;;		_readEEPROM
  2687 ;; This function is called by:
  2688 ;;		_lenh_themthe
  2689 ;; This function uses a non-reentrant model
  2690 ;;
  2691                           
  2692     0A9A                     _check_dulieu_the:	
  2693                           ;psect for function _check_dulieu_the
  2694                           
  2695                           
  2696                           ;incstack = 0
  2697                           ; Regs used in _check_dulieu_the: [wreg+status,2+status,0+btemp+1+pclath+cstack]
  2698                           ;check_dulieu_the@number stored from wreg
  2699     0A9A  00F3               	movwf	check_dulieu_the@number
  2700     0A9B                     l2967:
  2701     0A9B                     l2969:
  2702     0A9B  3010               	movlw	16
  2703     0A9C  00F0               	movwf	___bmul@multiplicand
  2704     0A9D  0873               	movf	check_dulieu_the@number,w
  2705     0A9E  120A  158A  2208  120A  158A  	fcall	___bmul
  2706     0AA3  3E0A               	addlw	10
  2707     0AA4  00F3               	movwf	check_dulieu_the@number
  2708     0AA5                     l2971:
  2709     0AA5  0873               	movf	check_dulieu_the@number,w
  2710     0AA6  120A  158A  2193  120A  158A  	fcall	_readEEPROM
  2711     0AAB  3AFF               	xorlw	255
  2712     0AAC  1D03               	skipz
  2713     0AAD  2AAF               	goto	u2251
  2714     0AAE  2AB0               	goto	u2250
  2715     0AAF                     u2251:
  2716     0AAF  2AB2               	goto	l2977
  2717     0AB0                     u2250:
  2718     0AB0                     l2973:
  2719     0AB0  3000               	movlw	0
  2720     0AB1  2AB3               	goto	l485
  2721     0AB2                     l2977:
  2722     0AB2  3001               	movlw	1
  2723     0AB3                     l485:
  2724     0AB3  0008               	return
  2725     0AB4                     __end_of_check_dulieu_the:
  2726                           
  2727                           	psect	text5
  2728     0F01                     __ptext5:	
  2729 ;; *************** function _lenh_mocua_quetthe *****************
  2730 ;; Defined at:
  2731 ;;		line 69 in file "./menu.h"
  2732 ;; Parameters:    Size  Location     Type
  2733 ;;		None
  2734 ;; Auto vars:     Size  Location     Type
  2735 ;;  UID            10   33[BANK0 ] unsigned char [10]
  2736 ;;  tong            2   54[BANK0 ] int 
  2737 ;;  j               2   52[BANK0 ] int 
  2738 ;;  TagType         2   48[BANK0 ] unsigned int 
  2739 ;;  i               2   46[BANK0 ] int 
  2740 ;;  h               2   43[BANK0 ] int 
  2741 ;;  a               2   31[BANK0 ] int 
  2742 ;;  flag            2   29[BANK0 ] int 
  2743 ;;  bienchay        2    0        int 
  2744 ;;  y               1   51[BANK0 ] unsigned char 
  2745 ;;  x               1   50[BANK0 ] unsigned char 
  2746 ;;  address         1   45[BANK0 ] unsigned char 
  2747 ;; Return value:  Size  Location     Type
  2748 ;;                  1    wreg      unsigned char 
  2749 ;; Registers used:
  2750 ;;		wreg, fsr0l, fsr0h, status,2, status,0, btemp+1, pclath, cstack
  2751 ;; Tracked objects:
  2752 ;;		On entry : 0/0
  2753 ;;		On exit  : 0/0
  2754 ;;		Unchanged: 0/0
  2755 ;; Data sizes:     COMMON   BANK0   BANK1   BANK3   BANK2
  2756 ;;      Params:         0       0       0       0       0
  2757 ;;      Locals:         0      27       0       0       0
  2758 ;;      Temps:          0       3       0       0       0
  2759 ;;      Totals:         0      30       0       0       0
  2760 ;;Total ram usage:       30 bytes
  2761 ;; Hardware stack levels used: 1
  2762 ;; Hardware stack levels required when called: 6
  2763 ;; This function calls:
  2764 ;;		_MFRC522_ReadCardSerial
  2765 ;;		_MFRC522_isCard
  2766 ;;		___bmul
  2767 ;;		_chuoi_kytu
  2768 ;;		_clear_lcd
  2769 ;;		_failunlock
  2770 ;;		_lenh
  2771 ;;		_readEEPROM
  2772 ;;		_unlock
  2773 ;; This function is called by:
  2774 ;;		_taplenh_menu
  2775 ;; This function uses a non-reentrant model
  2776 ;;
  2777                           
  2778     0F01                     _lenh_mocua_quetthe:	
  2779                           ;psect for function _lenh_mocua_quetthe
  2780                           
  2781     0F01                     l2997:	
  2782                           ;incstack = 0
  2783                           ; Regs used in _lenh_mocua_quetthe: [wreg-fsr0h+status,2+status,0+btemp+1+pclath+cstack]
  2784                           
  2785     0F01  1283               	bcf	3,5	;RP0=0, select bank0
  2786     0F02  1303               	bcf	3,6	;RP1=0, select bank0
  2787     0F03  01BD               	clrf	lenh_mocua_quetthe@flag
  2788     0F04  01BE               	clrf	lenh_mocua_quetthe@flag+1
  2789     0F05  01BF               	clrf	lenh_mocua_quetthe@a
  2790     0F06  01C0               	clrf	lenh_mocua_quetthe@a+1
  2791     0F07  01D6               	clrf	lenh_mocua_quetthe@tong
  2792     0F08  01D7               	clrf	lenh_mocua_quetthe@tong+1
  2793     0F09                     l2999:
  2794     0F09  3010               	movlw	16
  2795     0F0A  00CB               	movwf	lenh_mocua_quetthe@h
  2796     0F0B  3000               	movlw	0
  2797     0F0C  00CC               	movwf	lenh_mocua_quetthe@h+1
  2798     0F0D                     l3001:
  2799     0F0D                     l3003:
  2800     0F0D  01D2               	clrf	lenh_mocua_quetthe@x
  2801     0F0E                     l3005:
  2802     0F0E  01D3               	clrf	lenh_mocua_quetthe@y
  2803     0F0F                     l3007:
  2804                           
  2805                           ;./menu.h: 72:                 for(i=0;i<10;i++){;./menu.h: 73:                     PORT
      +                          Abits.RA0 = 1;;./menu.h: 74:                         _delay((unsigned long)((50)*(200000
      +                          00/4000.0)));
  2806     0F0F  120A  118A  200C  120A  158A  	fcall	_clear_lcd
  2807     0F14                     l3009:
  2808                           
  2809                           ;./menu.h: 75:                         PORTAbits.RA0 = 0;
  2810     0F14  30C0               	movlw	192
  2811     0F15  120A  158A  22B4  120A  158A  	fcall	_lenh
  2812     0F1A                     l3011:
  2813                           
  2814                           ;./menu.h: 76:                         _delay((unsigned long)((50)*(20000000/4000.0)));
  2815     0F1A  30AC               	movlw	low (STR_5| (0+32768))
  2816     0F1B  00F2               	movwf	chuoi_kytu@a
  2817     0F1C  3088               	movlw	high (STR_5| (0+32768))
  2818     0F1D  00F3               	movwf	chuoi_kytu@a+1
  2819     0F1E  120A  158A  236D  120A  158A  	fcall	_chuoi_kytu
  2820     0F23                     l3013:
  2821                           
  2822                           ;./menu.h: 83:                             PORTAbits.RA1 = 0;
  2823     0F23  3050               	movlw	(low (lenh_mocua_quetthe@TagType| 0))& (0+255)
  2824     0F24  120A  158A  21E3  120A  158A  	fcall	_MFRC522_isCard
  2825     0F29  3A00               	xorlw	0
  2826     0F2A  1903               	skipnz
  2827     0F2B  2F2D               	goto	u2261
  2828     0F2C  2F2E               	goto	u2260
  2829     0F2D                     u2261:
  2830     0F2D  2F23               	goto	l3013
  2831     0F2E                     u2260:
  2832     0F2E                     l3015:
  2833                           
  2834                           ;./menu.h: 84:                             _delay((unsigned long)((100)*(20000000/4000.0
      +                          )));;./menu.h: 85:                         }
  2835     0F2E  3041               	movlw	(low (lenh_mocua_quetthe@UID| 0))& (0+255)
  2836     0F2F  120A  158A  2280  120A  158A  	fcall	_MFRC522_ReadCardSerial
  2837     0F34  3A00               	xorlw	0
  2838     0F35  1903               	skipnz
  2839     0F36  2F38               	goto	u2271
  2840     0F37  2F39               	goto	u2270
  2841     0F38                     u2271:
  2842     0F38  2F23               	goto	l3013
  2843     0F39                     u2270:
  2844     0F39                     l3017:
  2845                           
  2846                           ;./menu.h: 86:                         y = y + 0x01;;./menu.h: 88:                     y
      +                           = 0x00;
  2847     0F39  1283               	bcf	3,5	;RP0=0, select bank0
  2848     0F3A  1303               	bcf	3,6	;RP1=0, select bank0
  2849     0F3B  01CE               	clrf	lenh_mocua_quetthe@i
  2850     0F3C  01CF               	clrf	lenh_mocua_quetthe@i+1
  2851     0F3D                     l397:
  2852                           
  2853                           ;./menu.h: 89:                     if(tong >= 6){
  2854     0F3D  1283               	bcf	3,5	;RP0=0, select bank0
  2855     0F3E  1303               	bcf	3,6	;RP1=0, select bank0
  2856     0F3F  1405               	bsf	5,0	;volatile
  2857     0F40                     l3023:
  2858                           
  2859                           ;./menu.h: 90:                         unlock();
  2860     0F40  3002               	movlw	2
  2861     0F41  1283               	bcf	3,5	;RP0=0, select bank0
  2862     0F42  1303               	bcf	3,6	;RP1=0, select bank0
  2863     0F43  00BC               	movwf	??_lenh_mocua_quetthe+2
  2864     0F44  3045               	movlw	69
  2865     0F45  00BB               	movwf	??_lenh_mocua_quetthe+1
  2866     0F46  30A9               	movlw	169
  2867     0F47  00BA               	movwf	??_lenh_mocua_quetthe
  2868     0F48                     u3037:
  2869     0F48  0BBA               	decfsz	??_lenh_mocua_quetthe,f
  2870     0F49  2F48               	goto	u3037
  2871     0F4A  0BBB               	decfsz	??_lenh_mocua_quetthe+1,f
  2872     0F4B  2F48               	goto	u3037
  2873     0F4C  0BBC               	decfsz	??_lenh_mocua_quetthe+2,f
  2874     0F4D  2F48               	goto	u3037
  2875     0F4E                     l3025:
  2876                           
  2877                           ;./menu.h: 91:                         break;
  2878     0F4E  1283               	bcf	3,5	;RP0=0, select bank0
  2879     0F4F  1303               	bcf	3,6	;RP1=0, select bank0
  2880     0F50  1005               	bcf	5,0	;volatile
  2881                           
  2882                           ;./menu.h: 92:                     }
  2883     0F51  3002               	movlw	2
  2884     0F52  1283               	bcf	3,5	;RP0=0, select bank0
  2885     0F53  1303               	bcf	3,6	;RP1=0, select bank0
  2886     0F54  00BC               	movwf	??_lenh_mocua_quetthe+2
  2887     0F55  3045               	movlw	69
  2888     0F56  00BB               	movwf	??_lenh_mocua_quetthe+1
  2889     0F57  30A9               	movlw	169
  2890     0F58  00BA               	movwf	??_lenh_mocua_quetthe
  2891     0F59                     u3047:
  2892     0F59  0BBA               	decfsz	??_lenh_mocua_quetthe,f
  2893     0F5A  2F59               	goto	u3047
  2894     0F5B  0BBB               	decfsz	??_lenh_mocua_quetthe+1,f
  2895     0F5C  2F59               	goto	u3047
  2896     0F5D  0BBC               	decfsz	??_lenh_mocua_quetthe+2,f
  2897     0F5E  2F59               	goto	u3047
  2898     0F5F                     l3027:
  2899                           
  2900                           ;./menu.h: 93:                     tong = 0;
  2901     0F5F  1283               	bcf	3,5	;RP0=0, select bank0
  2902     0F60  1303               	bcf	3,6	;RP1=0, select bank0
  2903     0F61  01D4               	clrf	lenh_mocua_quetthe@j
  2904     0F62  01D5               	clrf	lenh_mocua_quetthe@j+1
  2905     0F63                     l3033:
  2906                           
  2907                           ;./menu.h: 94:                     x = x + 0x01;
  2908     0F63  1283               	bcf	3,5	;RP0=0, select bank0
  2909     0F64  1303               	bcf	3,6	;RP1=0, select bank0
  2910     0F65  084B               	movf	lenh_mocua_quetthe@h,w
  2911     0F66  00F0               	movwf	___bmul@multiplicand
  2912     0F67  0852               	movf	lenh_mocua_quetthe@x,w
  2913     0F68  120A  158A  2208  120A  158A  	fcall	___bmul
  2914     0F6D  1283               	bcf	3,5	;RP0=0, select bank0
  2915     0F6E  1303               	bcf	3,6	;RP1=0, select bank0
  2916     0F6F  0753               	addwf	lenh_mocua_quetthe@y,w
  2917     0F70  00CD               	movwf	lenh_mocua_quetthe@address
  2918     0F71                     l3035:
  2919                           
  2920                           ;./menu.h: 95:                 }
  2921     0F71  0854               	movf	lenh_mocua_quetthe@j,w
  2922     0F72  3E41               	addlw	(low (lenh_mocua_quetthe@UID| 0))& (0+255)
  2923     0F73  0084               	movwf	4
  2924     0F74  084D               	movf	lenh_mocua_quetthe@address,w
  2925     0F75  120A  158A  2193  120A  158A  	fcall	_readEEPROM
  2926     0F7A  1383               	bcf	3,7	;select IRP bank0
  2927     0F7B  0600               	xorwf	0,w
  2928     0F7C  1D03               	skipz
  2929     0F7D  2F7F               	goto	u2281
  2930     0F7E  2F80               	goto	u2280
  2931     0F7F                     u2281:
  2932     0F7F  2FAA               	goto	l401
  2933     0F80                     u2280:
  2934     0F80                     l3037:
  2935                           
  2936                           ;./menu.h: 96:                 if(tong == 0){
  2937     0F80  1283               	bcf	3,5	;RP0=0, select bank0
  2938     0F81  1303               	bcf	3,6	;RP1=0, select bank0
  2939     0F82  0856               	movf	lenh_mocua_quetthe@tong,w
  2940     0F83  3E01               	addlw	1
  2941     0F84  00D6               	movwf	lenh_mocua_quetthe@tong
  2942     0F85  0857               	movf	lenh_mocua_quetthe@tong+1,w
  2943     0F86  1803               	skipnc
  2944     0F87  3E01               	addlw	1
  2945     0F88  3E00               	addlw	0
  2946     0F89  00D7               	movwf	lenh_mocua_quetthe@tong+1
  2947     0F8A                     l3039:
  2948                           
  2949                           ;./menu.h: 97:                 failunlock();
  2950     0F8A  1485               	bsf	5,1	;volatile
  2951     0F8B                     l3041:
  2952                           
  2953                           ;./menu.h: 98:                 break;
  2954     0F8B  3003               	movlw	3
  2955     0F8C  1283               	bcf	3,5	;RP0=0, select bank0
  2956     0F8D  1303               	bcf	3,6	;RP1=0, select bank0
  2957     0F8E  00BC               	movwf	??_lenh_mocua_quetthe+2
  2958     0F8F  308A               	movlw	138
  2959     0F90  00BB               	movwf	??_lenh_mocua_quetthe+1
  2960     0F91  3055               	movlw	85
  2961     0F92  00BA               	movwf	??_lenh_mocua_quetthe
  2962     0F93                     u3057:
  2963     0F93  0BBA               	decfsz	??_lenh_mocua_quetthe,f
  2964     0F94  2F93               	goto	u3057
  2965     0F95  0BBB               	decfsz	??_lenh_mocua_quetthe+1,f
  2966     0F96  2F93               	goto	u3057
  2967     0F97  0BBC               	decfsz	??_lenh_mocua_quetthe+2,f
  2968     0F98  2F93               	goto	u3057
  2969     0F99                     l3043:
  2970                           
  2971                           ;./menu.h: 99:                 }
  2972     0F99  1283               	bcf	3,5	;RP0=0, select bank0
  2973     0F9A  1303               	bcf	3,6	;RP1=0, select bank0
  2974     0F9B  1085               	bcf	5,1	;volatile
  2975     0F9C                     l3045:
  2976                           
  2977                           ;./menu.h: 100:                 break;
  2978     0F9C  3003               	movlw	3
  2979     0F9D  1283               	bcf	3,5	;RP0=0, select bank0
  2980     0F9E  1303               	bcf	3,6	;RP1=0, select bank0
  2981     0F9F  00BC               	movwf	??_lenh_mocua_quetthe+2
  2982     0FA0  308A               	movlw	138
  2983     0FA1  00BB               	movwf	??_lenh_mocua_quetthe+1
  2984     0FA2  3055               	movlw	85
  2985     0FA3  00BA               	movwf	??_lenh_mocua_quetthe
  2986     0FA4                     u3067:
  2987     0FA4  0BBA               	decfsz	??_lenh_mocua_quetthe,f
  2988     0FA5  2FA4               	goto	u3067
  2989     0FA6  0BBB               	decfsz	??_lenh_mocua_quetthe+1,f
  2990     0FA7  2FA4               	goto	u3067
  2991     0FA8  0BBC               	decfsz	??_lenh_mocua_quetthe+2,f
  2992     0FA9  2FA4               	goto	u3067
  2993     0FAA                     l401:	
  2994                           ;./menu.h: 101:             }
  2995                           
  2996                           
  2997                           ;./menu.h: 102:         }
  2998     0FAA  1283               	bcf	3,5	;RP0=0, select bank0
  2999     0FAB  1303               	bcf	3,6	;RP1=0, select bank0
  3000     0FAC  0853               	movf	lenh_mocua_quetthe@y,w
  3001     0FAD  3E01               	addlw	1
  3002     0FAE  00D3               	movwf	lenh_mocua_quetthe@y
  3003     0FAF                     l3047:
  3004                           
  3005                           ;./menu.h: 103:     }
  3006     0FAF  3001               	movlw	1
  3007     0FB0  07D4               	addwf	lenh_mocua_quetthe@j,f
  3008     0FB1  1803               	skipnc
  3009     0FB2  0AD5               	incf	lenh_mocua_quetthe@j+1,f
  3010     0FB3  3000               	movlw	0
  3011     0FB4  07D5               	addwf	lenh_mocua_quetthe@j+1,f
  3012     0FB5                     l3049:
  3013     0FB5  0855               	movf	lenh_mocua_quetthe@j+1,w
  3014     0FB6  3A80               	xorlw	128
  3015     0FB7  00FF               	movwf	btemp+1
  3016     0FB8  3080               	movlw	128
  3017     0FB9  027F               	subwf	btemp+1,w
  3018     0FBA  1D03               	skipz
  3019     0FBB  2FBE               	goto	u2295
  3020     0FBC  300A               	movlw	10
  3021     0FBD  0254               	subwf	lenh_mocua_quetthe@j,w
  3022     0FBE                     u2295:
  3023     0FBE  1C03               	skipc
  3024     0FBF  2FC1               	goto	u2291
  3025     0FC0  2FC2               	goto	u2290
  3026     0FC1                     u2291:
  3027     0FC1  2F63               	goto	l3033
  3028     0FC2                     u2290:
  3029     0FC2                     l3051:
  3030                           
  3031                           ;./menu.h: 104: }
  3032     0FC2  1283               	bcf	3,5	;RP0=0, select bank0
  3033     0FC3  1303               	bcf	3,6	;RP1=0, select bank0
  3034     0FC4  01D3               	clrf	lenh_mocua_quetthe@y
  3035     0FC5                     l3053:
  3036                           
  3037                           ;./menu.h: 105: unsigned char lenh_mocua_matkhau(){
  3038     0FC5  0857               	movf	lenh_mocua_quetthe@tong+1,w
  3039     0FC6  3A80               	xorlw	128
  3040     0FC7  00FF               	movwf	btemp+1
  3041     0FC8  3080               	movlw	128
  3042     0FC9  027F               	subwf	btemp+1,w
  3043     0FCA  1D03               	skipz
  3044     0FCB  2FCE               	goto	u2305
  3045     0FCC  3006               	movlw	6
  3046     0FCD  0256               	subwf	lenh_mocua_quetthe@tong,w
  3047     0FCE                     u2305:
  3048     0FCE  1C03               	skipc
  3049     0FCF  2FD1               	goto	u2301
  3050     0FD0  2FD2               	goto	u2300
  3051     0FD1                     u2301:
  3052     0FD1  2FD8               	goto	l3057
  3053     0FD2                     u2300:
  3054     0FD2                     l3055:
  3055                           
  3056                           ;./menu.h: 106:     int i, flagmksai = 0;
  3057     0FD2  120A  158A  259A  120A  158A  	fcall	_unlock
  3058                           
  3059                           ;./menu.h: 107:     unsigned char j = 0xF0;
  3060     0FD7  2FF2               	goto	l3065
  3061     0FD8                     l3057:
  3062                           
  3063                           ;./menu.h: 109:     clear_lcd();
  3064     0FD8  1283               	bcf	3,5	;RP0=0, select bank0
  3065     0FD9  1303               	bcf	3,6	;RP1=0, select bank0
  3066     0FDA  01D6               	clrf	lenh_mocua_quetthe@tong
  3067     0FDB  01D7               	clrf	lenh_mocua_quetthe@tong+1
  3068     0FDC                     l3059:
  3069                           
  3070                           ;./menu.h: 110:     lenh(0x80);
  3071     0FDC  0852               	movf	lenh_mocua_quetthe@x,w
  3072     0FDD  3E01               	addlw	1
  3073     0FDE  00D2               	movwf	lenh_mocua_quetthe@x
  3074     0FDF                     l3061:
  3075                           
  3076                           ;./menu.h: 111:     chuoi_kytu("Nhap pass");
  3077     0FDF  3001               	movlw	1
  3078     0FE0  07CE               	addwf	lenh_mocua_quetthe@i,f
  3079     0FE1  1803               	skipnc
  3080     0FE2  0ACF               	incf	lenh_mocua_quetthe@i+1,f
  3081     0FE3  3000               	movlw	0
  3082     0FE4  07CF               	addwf	lenh_mocua_quetthe@i+1,f
  3083     0FE5                     l3063:
  3084     0FE5  084F               	movf	lenh_mocua_quetthe@i+1,w
  3085     0FE6  3A80               	xorlw	128
  3086     0FE7  00FF               	movwf	btemp+1
  3087     0FE8  3080               	movlw	128
  3088     0FE9  027F               	subwf	btemp+1,w
  3089     0FEA  1D03               	skipz
  3090     0FEB  2FEE               	goto	u2315
  3091     0FEC  300A               	movlw	10
  3092     0FED  024E               	subwf	lenh_mocua_quetthe@i,w
  3093     0FEE                     u2315:
  3094     0FEE  1C03               	skipc
  3095     0FEF  2FF1               	goto	u2311
  3096     0FF0  2FF2               	goto	u2310
  3097     0FF1                     u2311:
  3098     0FF1  2F3D               	goto	l397
  3099     0FF2                     u2310:
  3100     0FF2                     l3065:
  3101                           
  3102                           ;./menu.h: 112:     if(readEEPROM(0xE0)== 0xFF){
  3103     0FF2  1283               	bcf	3,5	;RP0=0, select bank0
  3104     0FF3  1303               	bcf	3,6	;RP1=0, select bank0
  3105     0FF4  0856               	movf	lenh_mocua_quetthe@tong,w
  3106     0FF5  0457               	iorwf	lenh_mocua_quetthe@tong+1,w
  3107     0FF6  1D03               	btfss	3,2
  3108     0FF7  2FF9               	goto	u2321
  3109     0FF8  2FFA               	goto	u2320
  3110     0FF9                     u2321:
  3111     0FF9  2FFF               	goto	l406
  3112     0FFA                     u2320:
  3113     0FFA                     l3067:
  3114                           
  3115                           ;./menu.h: 113:         PORTAbits.RA0 = 1;
  3116     0FFA  120A  158A  2454  120A  158A  	fcall	_failunlock
  3117     0FFF                     l406:	
  3118                           ;./menu.h: 114:         _delay((unsigned long)((100)*(20000000/4000.0)));
  3119                           
  3120     0FFF  0008               	return
  3121     1000                     __end_of_lenh_mocua_quetthe:
  3122                           
  3123                           	psect	text6
  3124     0A08                     __ptext6:	
  3125 ;; *************** function ___bmul *****************
  3126 ;; Defined at:
  3127 ;;		line 4 in file "C:\Program Files\Microchip\xc8\v2.41\pic\sources\c90\common\Umul8.c"
  3128 ;; Parameters:    Size  Location     Type
  3129 ;;  multiplier      1    wreg     unsigned char 
  3130 ;;  multiplicand    1    0[COMMON] unsigned char 
  3131 ;; Auto vars:     Size  Location     Type
  3132 ;;  multiplier      1    2[COMMON] unsigned char 
  3133 ;;  product         1    1[COMMON] unsigned char 
  3134 ;; Return value:  Size  Location     Type
  3135 ;;                  1    wreg      unsigned char 
  3136 ;; Registers used:
  3137 ;;		wreg, status,2, status,0, btemp+1
  3138 ;; Tracked objects:
  3139 ;;		On entry : 0/0
  3140 ;;		On exit  : 0/0
  3141 ;;		Unchanged: 0/0
  3142 ;; Data sizes:     COMMON   BANK0   BANK1   BANK3   BANK2
  3143 ;;      Params:         1       0       0       0       0
  3144 ;;      Locals:         2       0       0       0       0
  3145 ;;      Temps:          0       0       0       0       0
  3146 ;;      Totals:         3       0       0       0       0
  3147 ;;Total ram usage:        3 bytes
  3148 ;; Hardware stack levels used: 1
  3149 ;; This function calls:
  3150 ;;		Nothing
  3151 ;; This function is called by:
  3152 ;;		_lenh_mocua_quetthe
  3153 ;;		_lenh_themthe
  3154 ;;		_check_dulieu_the
  3155 ;; This function uses a non-reentrant model
  3156 ;;
  3157                           
  3158     0A08                     ___bmul:	
  3159                           ;psect for function ___bmul
  3160                           
  3161                           
  3162                           ;incstack = 0
  3163                           ; Regs used in ___bmul: [wreg+status,2+status,0+btemp+1]
  3164                           ;___bmul@multiplier stored from wreg
  3165     0A08  00F2               	movwf	___bmul@multiplier
  3166     0A09                     l2827:
  3167     0A09  01F1               	clrf	___bmul@product
  3168     0A0A                     l2829:
  3169     0A0A  1C72               	btfss	___bmul@multiplier,0
  3170     0A0B  2A0D               	goto	u2181
  3171     0A0C  2A0E               	goto	u2180
  3172     0A0D                     u2181:
  3173     0A0D  2A12               	goto	l2833
  3174     0A0E                     u2180:
  3175     0A0E                     l2831:
  3176     0A0E  0870               	movf	___bmul@multiplicand,w
  3177     0A0F  00FF               	movwf	btemp+1
  3178     0A10  087F               	movf	btemp+1,w
  3179     0A11  07F1               	addwf	___bmul@product,f
  3180     0A12                     l2833:
  3181     0A12  1003               	clrc
  3182     0A13  0DF0               	rlf	___bmul@multiplicand,f
  3183     0A14                     l2835:
  3184     0A14  1003               	clrc
  3185     0A15  0CF2               	rrf	___bmul@multiplier,f
  3186     0A16                     l2837:
  3187     0A16  0872               	movf	___bmul@multiplier,w
  3188     0A17  1D03               	btfss	3,2
  3189     0A18  2A1A               	goto	u2191
  3190     0A19  2A1B               	goto	u2190
  3191     0A1A                     u2191:
  3192     0A1A  2A0A               	goto	l2829
  3193     0A1B                     u2190:
  3194     0A1B                     l2839:
  3195     0A1B  0871               	movf	___bmul@product,w
  3196     0A1C                     l617:
  3197     0A1C  0008               	return
  3198     0A1D                     __end_of___bmul:
  3199                           
  3200                           	psect	text7
  3201     09E3                     __ptext7:	
  3202 ;; *************** function _MFRC522_isCard *****************
  3203 ;; Defined at:
  3204 ;;		line 467 in file "./RC522.h"
  3205 ;; Parameters:    Size  Location     Type
  3206 ;;  TagType         1    wreg     PTR unsigned char 
  3207 ;;		 -> lenh_themthe@TagType(2), lenh_mocua_quetthe@TagType(2), 
  3208 ;; Auto vars:     Size  Location     Type
  3209 ;;  TagType         1   13[COMMON] PTR unsigned char 
  3210 ;;		 -> lenh_themthe@TagType(2), lenh_mocua_quetthe@TagType(2), 
  3211 ;; Return value:  Size  Location     Type
  3212 ;;                  1    wreg      unsigned char 
  3213 ;; Registers used:
  3214 ;;		wreg, fsr0l, fsr0h, status,2, status,0, btemp+1, pclath, cstack
  3215 ;; Tracked objects:
  3216 ;;		On entry : 0/0
  3217 ;;		On exit  : 0/0
  3218 ;;		Unchanged: 0/0
  3219 ;; Data sizes:     COMMON   BANK0   BANK1   BANK3   BANK2
  3220 ;;      Params:         0       0       0       0       0
  3221 ;;      Locals:         1       0       0       0       0
  3222 ;;      Temps:          0       0       0       0       0
  3223 ;;      Totals:         1       0       0       0       0
  3224 ;;Total ram usage:        1 bytes
  3225 ;; Hardware stack levels used: 1
  3226 ;; Hardware stack levels required when called: 5
  3227 ;; This function calls:
  3228 ;;		_MFRC522_Request
  3229 ;; This function is called by:
  3230 ;;		_lenh_mocua_quetthe
  3231 ;;		_lenh_themthe
  3232 ;; This function uses a non-reentrant model
  3233 ;;
  3234                           
  3235     09E3                     _MFRC522_isCard:	
  3236                           ;psect for function _MFRC522_isCard
  3237                           
  3238                           
  3239                           ;incstack = 0
  3240                           ; Regs used in _MFRC522_isCard: [wreg-fsr0h+status,2+status,0+btemp+1+pclath+cstack]
  3241                           ;MFRC522_isCard@TagType stored from wreg
  3242     09E3  00FD               	movwf	MFRC522_isCard@TagType
  3243     09E4                     l2853:
  3244                           
  3245                           ;./RC522.h: 467: char MFRC522_isCard( char *TagType );./RC522.h: 468: {;./RC522.h: 469: 
      +                              if (MFRC522_Request( 0x26, TagType ) == 0)
  3246     09E4  087D               	movf	MFRC522_isCard@TagType,w
  3247     09E5  00FC               	movwf	MFRC522_Request@TagType
  3248     09E6  3026               	movlw	38
  3249     09E7  120A  158A  2398  120A  158A  	fcall	_MFRC522_Request
  3250     09EC  3A00               	xorlw	0
  3251     09ED  1D03               	skipz
  3252     09EE  29F0               	goto	u2211
  3253     09EF  29F1               	goto	u2210
  3254     09F0                     u2211:
  3255     09F0  29F3               	goto	l2861
  3256     09F1                     u2210:
  3257     09F1                     l2855:
  3258                           
  3259                           ;./RC522.h: 470:         return 1;
  3260     09F1  3001               	movlw	1
  3261     09F2  29F4               	goto	l375
  3262     09F3                     l2861:
  3263                           
  3264                           ;./RC522.h: 472:         return 0;
  3265     09F3  3000               	movlw	0
  3266     09F4                     l375:
  3267     09F4  0008               	return
  3268     09F5                     __end_of_MFRC522_isCard:
  3269                           
  3270                           	psect	text8
  3271     0B98                     __ptext8:	
  3272 ;; *************** function _MFRC522_Request *****************
  3273 ;; Defined at:
  3274 ;;		line 277 in file "./RC522.h"
  3275 ;; Parameters:    Size  Location     Type
  3276 ;;  reqMode         1    wreg     unsigned char 
  3277 ;;  TagType         1   12[COMMON] PTR unsigned char 
  3278 ;;		 -> lenh_themthe@TagType(2), lenh_mocua_quetthe@TagType(2), 
  3279 ;; Auto vars:     Size  Location     Type
  3280 ;;  reqMode         1   18[BANK0 ] unsigned char 
  3281 ;;  backBits        2   20[BANK0 ] unsigned int 
  3282 ;;  _status         1   19[BANK0 ] unsigned char 
  3283 ;; Return value:  Size  Location     Type
  3284 ;;                  1    wreg      unsigned char 
  3285 ;; Registers used:
  3286 ;;		wreg, fsr0l, fsr0h, status,2, status,0, btemp+1, pclath, cstack
  3287 ;; Tracked objects:
  3288 ;;		On entry : 0/0
  3289 ;;		On exit  : 0/0
  3290 ;;		Unchanged: 0/0
  3291 ;; Data sizes:     COMMON   BANK0   BANK1   BANK3   BANK2
  3292 ;;      Params:         1       0       0       0       0
  3293 ;;      Locals:         0       4       0       0       0
  3294 ;;      Temps:          0       0       0       0       0
  3295 ;;      Totals:         1       4       0       0       0
  3296 ;;Total ram usage:        5 bytes
  3297 ;; Hardware stack levels used: 1
  3298 ;; Hardware stack levels required when called: 4
  3299 ;; This function calls:
  3300 ;;		_MFRC522_ToCard
  3301 ;;		_MFRC522_Wr
  3302 ;; This function is called by:
  3303 ;;		_MFRC522_isCard
  3304 ;; This function uses a non-reentrant model
  3305 ;;
  3306                           
  3307     0B98                     _MFRC522_Request:	
  3308                           ;psect for function _MFRC522_Request
  3309                           
  3310                           
  3311                           ;incstack = 0
  3312                           ; Regs used in _MFRC522_Request: [wreg-fsr0h+status,2+status,0+btemp+1+pclath+cstack]
  3313                           ;MFRC522_Request@reqMode stored from wreg
  3314     0B98  1283               	bcf	3,5	;RP0=0, select bank0
  3315     0B99  1303               	bcf	3,6	;RP1=0, select bank0
  3316     0B9A  00B2               	movwf	MFRC522_Request@reqMode
  3317     0B9B                     l2773:
  3318                           
  3319                           ;./RC522.h: 277: char MFRC522_Request( char reqMode, char *TagType );./RC522.h: 278: {;.
      +                          /RC522.h: 279:   char _status;;./RC522.h: 280:   unsigned backBits;;./RC522.h: 281:   MF
      +                          RC522_Wr( 0x0D, 0x07 );
  3320     0B9B  3007               	movlw	7
  3321     0B9C  00F6               	movwf	MFRC522_Wr@value
  3322     0B9D  300D               	movlw	13
  3323     0B9E  120A  158A  221D  120A  158A  	fcall	_MFRC522_Wr
  3324     0BA3                     l2775:
  3325                           
  3326                           ;./RC522.h: 282:   TagType[0] = reqMode;
  3327     0BA3  087C               	movf	MFRC522_Request@TagType,w
  3328     0BA4  0084               	movwf	4
  3329     0BA5  1283               	bcf	3,5	;RP0=0, select bank0
  3330     0BA6  1303               	bcf	3,6	;RP1=0, select bank0
  3331     0BA7  0832               	movf	MFRC522_Request@reqMode,w
  3332     0BA8  1383               	bcf	3,7	;select IRP bank0
  3333     0BA9  0080               	movwf	0
  3334     0BAA                     l2777:
  3335                           
  3336                           ;./RC522.h: 283:   _status = MFRC522_ToCard( 0x0C, TagType, 1, TagType, &backBits );
  3337     0BAA  087C               	movf	MFRC522_Request@TagType,w
  3338     0BAB  00A0               	movwf	MFRC522_ToCard@sendData
  3339     0BAC  01A1               	clrf	MFRC522_ToCard@sendLen
  3340     0BAD  0AA1               	incf	MFRC522_ToCard@sendLen,f
  3341     0BAE  087C               	movf	MFRC522_Request@TagType,w
  3342     0BAF  00A2               	movwf	MFRC522_ToCard@backData
  3343     0BB0  3034               	movlw	(low (MFRC522_Request@backBits| 0))& (0+255)
  3344     0BB1  00A3               	movwf	MFRC522_ToCard@backLen
  3345     0BB2  300C               	movlw	12
  3346     0BB3  120A  118A  2297  120A  158A  	fcall	_MFRC522_ToCard
  3347     0BB8  1283               	bcf	3,5	;RP0=0, select bank0
  3348     0BB9  1303               	bcf	3,6	;RP1=0, select bank0
  3349     0BBA  00B3               	movwf	MFRC522_Request@_status
  3350     0BBB                     l2779:
  3351                           
  3352                           ;./RC522.h: 284:   if ( (_status != 0) || (backBits != 0x10) )
  3353     0BBB  0833               	movf	MFRC522_Request@_status,w
  3354     0BBC  1D03               	btfss	3,2
  3355     0BBD  2BBF               	goto	u2131
  3356     0BBE  2BC0               	goto	u2130
  3357     0BBF                     u2131:
  3358     0BBF  2BC7               	goto	l2783
  3359     0BC0                     u2130:
  3360     0BC0                     l2781:
  3361     0BC0  3010               	movlw	16
  3362     0BC1  0634               	xorwf	MFRC522_Request@backBits,w
  3363     0BC2  0435               	iorwf	MFRC522_Request@backBits+1,w
  3364     0BC3  1903               	btfsc	3,2
  3365     0BC4  2BC6               	goto	u2141
  3366     0BC5  2BC7               	goto	u2140
  3367     0BC6                     u2141:
  3368     0BC6  2BC9               	goto	l313
  3369     0BC7                     u2140:
  3370     0BC7                     l2783:
  3371                           
  3372                           ;./RC522.h: 285:   {;./RC522.h: 286:     _status = 2;
  3373     0BC7  3002               	movlw	2
  3374     0BC8  00B3               	movwf	MFRC522_Request@_status
  3375     0BC9                     l313:	
  3376                           ;./RC522.h: 287:   }
  3377                           
  3378                           
  3379                           ;./RC522.h: 288:   return _status;
  3380     0BC9  0833               	movf	MFRC522_Request@_status,w
  3381     0BCA                     l316:
  3382     0BCA  0008               	return
  3383     0BCB                     __end_of_MFRC522_Request:
  3384                           
  3385                           	psect	text9
  3386     0A80                     __ptext9:	
  3387 ;; *************** function _MFRC522_ReadCardSerial *****************
  3388 ;; Defined at:
  3389 ;;		line 474 in file "./RC522.h"
  3390 ;; Parameters:    Size  Location     Type
  3391 ;;  str             1    wreg     PTR unsigned char 
  3392 ;;		 -> lenh_themthe@UID(10), lenh_mocua_quetthe@UID(10), 
  3393 ;; Auto vars:     Size  Location     Type
  3394 ;;  str             1   25[BANK0 ] PTR unsigned char 
  3395 ;;		 -> lenh_themthe@UID(10), lenh_mocua_quetthe@UID(10), 
  3396 ;;  _status         1   24[BANK0 ] unsigned char 
  3397 ;; Return value:  Size  Location     Type
  3398 ;;                  1    wreg      unsigned char 
  3399 ;; Registers used:
  3400 ;;		wreg, fsr0l, fsr0h, status,2, status,0, btemp+1, pclath, cstack
  3401 ;; Tracked objects:
  3402 ;;		On entry : 0/0
  3403 ;;		On exit  : 0/0
  3404 ;;		Unchanged: 0/0
  3405 ;; Data sizes:     COMMON   BANK0   BANK1   BANK3   BANK2
  3406 ;;      Params:         0       0       0       0       0
  3407 ;;      Locals:         0       2       0       0       0
  3408 ;;      Temps:          0       0       0       0       0
  3409 ;;      Totals:         0       2       0       0       0
  3410 ;;Total ram usage:        2 bytes
  3411 ;; Hardware stack levels used: 1
  3412 ;; Hardware stack levels required when called: 5
  3413 ;; This function calls:
  3414 ;;		_MFRC522_AntiColl
  3415 ;; This function is called by:
  3416 ;;		_lenh_mocua_quetthe
  3417 ;;		_lenh_themthe
  3418 ;; This function uses a non-reentrant model
  3419 ;;
  3420                           
  3421     0A80                     _MFRC522_ReadCardSerial:	
  3422                           ;psect for function _MFRC522_ReadCardSerial
  3423                           
  3424                           
  3425                           ;incstack = 0
  3426                           ; Regs used in _MFRC522_ReadCardSerial: [wreg-fsr0h+status,2+status,0+btemp+1+pclath+cst
      +                          ack]
  3427                           ;MFRC522_ReadCardSerial@str stored from wreg
  3428     0A80  1283               	bcf	3,5	;RP0=0, select bank0
  3429     0A81  1303               	bcf	3,6	;RP1=0, select bank0
  3430     0A82  00B9               	movwf	MFRC522_ReadCardSerial@str
  3431     0A83                     l2865:
  3432                           
  3433                           ;./RC522.h: 474: char MFRC522_ReadCardSerial( char *str );./RC522.h: 475: {;./RC522.h: 4
      +                          76: char _status;;./RC522.h: 477:  _status = MFRC522_AntiColl( str );
  3434     0A83  0839               	movf	MFRC522_ReadCardSerial@str,w
  3435     0A84  120A  158A  24A3  120A  158A  	fcall	_MFRC522_AntiColl
  3436     0A89  1283               	bcf	3,5	;RP0=0, select bank0
  3437     0A8A  1303               	bcf	3,6	;RP1=0, select bank0
  3438     0A8B  00B8               	movwf	MFRC522_ReadCardSerial@_status
  3439     0A8C                     l2867:
  3440                           
  3441                           ;./RC522.h: 478:  str[5] = 0;
  3442     0A8C  0839               	movf	MFRC522_ReadCardSerial@str,w
  3443     0A8D  3E05               	addlw	5
  3444     0A8E  0084               	movwf	4
  3445     0A8F  1383               	bcf	3,7	;select IRP bank0
  3446     0A90  0180               	clrf	0
  3447     0A91                     l2869:
  3448                           
  3449                           ;./RC522.h: 479:  if (_status == 0)
  3450     0A91  0838               	movf	MFRC522_ReadCardSerial@_status,w
  3451     0A92  1D03               	btfss	3,2
  3452     0A93  2A95               	goto	u2221
  3453     0A94  2A96               	goto	u2220
  3454     0A95                     u2221:
  3455     0A95  2A98               	goto	l2877
  3456     0A96                     u2220:
  3457     0A96                     l2871:
  3458                           
  3459                           ;./RC522.h: 480:   return 1;
  3460     0A96  3001               	movlw	1
  3461     0A97  2A99               	goto	l380
  3462     0A98                     l2877:
  3463                           
  3464                           ;./RC522.h: 482:   return 0;
  3465     0A98  3000               	movlw	0
  3466     0A99                     l380:
  3467     0A99  0008               	return
  3468     0A9A                     __end_of_MFRC522_ReadCardSerial:
  3469                           
  3470                           	psect	text10
  3471     0CA3                     __ptext10:	
  3472 ;; *************** function _MFRC522_AntiColl *****************
  3473 ;; Defined at:
  3474 ;;		line 437 in file "./RC522.h"
  3475 ;; Parameters:    Size  Location     Type
  3476 ;;  serNum          1    wreg     PTR unsigned char 
  3477 ;;		 -> lenh_themthe@UID(10), lenh_mocua_quetthe@UID(10), 
  3478 ;; Auto vars:     Size  Location     Type
  3479 ;;  serNum          1   23[BANK0 ] PTR unsigned char 
  3480 ;;		 -> lenh_themthe@UID(10), lenh_mocua_quetthe@UID(10), 
  3481 ;;  unLen           2   19[BANK0 ] unsigned int 
  3482 ;;  i               1   22[BANK0 ] unsigned char 
  3483 ;;  _status         1   21[BANK0 ] unsigned char 
  3484 ;;  serNumCheck     1   18[BANK0 ] unsigned char 
  3485 ;; Return value:  Size  Location     Type
  3486 ;;                  1    wreg      unsigned char 
  3487 ;; Registers used:
  3488 ;;		wreg, fsr0l, fsr0h, status,2, status,0, btemp+1, pclath, cstack
  3489 ;; Tracked objects:
  3490 ;;		On entry : 0/0
  3491 ;;		On exit  : 0/0
  3492 ;;		Unchanged: 0/0
  3493 ;; Data sizes:     COMMON   BANK0   BANK1   BANK3   BANK2
  3494 ;;      Params:         0       0       0       0       0
  3495 ;;      Locals:         0       6       0       0       0
  3496 ;;      Temps:          1       0       0       0       0
  3497 ;;      Totals:         1       6       0       0       0
  3498 ;;Total ram usage:        7 bytes
  3499 ;; Hardware stack levels used: 1
  3500 ;; Hardware stack levels required when called: 4
  3501 ;; This function calls:
  3502 ;;		_MFRC522_Clear_Bit
  3503 ;;		_MFRC522_ToCard
  3504 ;;		_MFRC522_Wr
  3505 ;; This function is called by:
  3506 ;;		_MFRC522_ReadCardSerial
  3507 ;; This function uses a non-reentrant model
  3508 ;;
  3509                           
  3510     0CA3                     _MFRC522_AntiColl:	
  3511                           ;psect for function _MFRC522_AntiColl
  3512                           
  3513                           
  3514                           ;incstack = 0
  3515                           ; Regs used in _MFRC522_AntiColl: [wreg-fsr0h+status,2+status,0+btemp+1+pclath+cstack]
  3516                           ;MFRC522_AntiColl@serNum stored from wreg
  3517     0CA3  1283               	bcf	3,5	;RP0=0, select bank0
  3518     0CA4  1303               	bcf	3,6	;RP1=0, select bank0
  3519     0CA5  00B7               	movwf	MFRC522_AntiColl@serNum
  3520     0CA6                     l2787:
  3521                           
  3522                           ;./RC522.h: 437: char MFRC522_AntiColl( char *serNum );./RC522.h: 438: {;./RC522.h: 439:
      +                             char _status;;./RC522.h: 440:   char i;;./RC522.h: 441:   char serNumCheck = 0;
  3523     0CA6  01B2               	clrf	MFRC522_AntiColl@serNumCheck
  3524     0CA7                     l2789:
  3525                           
  3526                           ;./RC522.h: 442:   unsigned unLen;;./RC522.h: 443:   MFRC522_Wr( 0x0D, 0x00 );
  3527     0CA7  01F6               	clrf	MFRC522_Wr@value
  3528     0CA8  300D               	movlw	13
  3529     0CA9  120A  158A  221D  120A  158A  	fcall	_MFRC522_Wr
  3530     0CAE                     l2791:
  3531                           
  3532                           ;./RC522.h: 444:   serNum[0] = 0x93;
  3533     0CAE  1283               	bcf	3,5	;RP0=0, select bank0
  3534     0CAF  1303               	bcf	3,6	;RP1=0, select bank0
  3535     0CB0  0837               	movf	MFRC522_AntiColl@serNum,w
  3536     0CB1  0084               	movwf	4
  3537     0CB2  3093               	movlw	147
  3538     0CB3  1383               	bcf	3,7	;select IRP bank0
  3539     0CB4  0080               	movwf	0
  3540     0CB5                     l2793:
  3541                           
  3542                           ;./RC522.h: 445:   serNum[1] = 0x20;
  3543     0CB5  0A37               	incf	MFRC522_AntiColl@serNum,w
  3544     0CB6  0084               	movwf	4
  3545     0CB7  3020               	movlw	32
  3546     0CB8  0080               	movwf	0
  3547     0CB9                     l2795:
  3548                           
  3549                           ;./RC522.h: 446:   MFRC522_Clear_Bit( 0x08, 0x08 );
  3550     0CB9  3008               	movlw	8
  3551     0CBA  00F9               	movwf	MFRC522_Clear_Bit@mask
  3552     0CBB  3008               	movlw	8
  3553     0CBC  120A  158A  21D1  120A  158A  	fcall	_MFRC522_Clear_Bit
  3554     0CC1                     l2797:
  3555                           
  3556                           ;./RC522.h: 447:   _status = MFRC522_ToCard( 0x0C, serNum, 2, serNum, &unLen );
  3557     0CC1  1283               	bcf	3,5	;RP0=0, select bank0
  3558     0CC2  1303               	bcf	3,6	;RP1=0, select bank0
  3559     0CC3  0837               	movf	MFRC522_AntiColl@serNum,w
  3560     0CC4  00A0               	movwf	MFRC522_ToCard@sendData
  3561     0CC5  3002               	movlw	2
  3562     0CC6  00A1               	movwf	MFRC522_ToCard@sendLen
  3563     0CC7  0837               	movf	MFRC522_AntiColl@serNum,w
  3564     0CC8  00A2               	movwf	MFRC522_ToCard@backData
  3565     0CC9  3033               	movlw	(low (MFRC522_AntiColl@unLen| 0))& (0+255)
  3566     0CCA  00A3               	movwf	MFRC522_ToCard@backLen
  3567     0CCB  300C               	movlw	12
  3568     0CCC  120A  118A  2297  120A  158A  	fcall	_MFRC522_ToCard
  3569     0CD1  1283               	bcf	3,5	;RP0=0, select bank0
  3570     0CD2  1303               	bcf	3,6	;RP1=0, select bank0
  3571     0CD3  00B5               	movwf	MFRC522_AntiColl@_status
  3572     0CD4                     l2799:
  3573                           
  3574                           ;./RC522.h: 448:   if (_status == 0)
  3575     0CD4  0835               	movf	MFRC522_AntiColl@_status,w
  3576     0CD5  1D03               	btfss	3,2
  3577     0CD6  2CD8               	goto	u2151
  3578     0CD7  2CD9               	goto	u2150
  3579     0CD8                     u2151:
  3580     0CD8  2CF9               	goto	l367
  3581     0CD9                     u2150:
  3582     0CD9                     l2801:
  3583                           
  3584                           ;./RC522.h: 449:   {;./RC522.h: 450:     for ( i=0; i < 4; i++ )
  3585     0CD9  01B6               	clrf	MFRC522_AntiColl@i
  3586     0CDA                     l2807:
  3587                           
  3588                           ;./RC522.h: 451:     {;./RC522.h: 452:       serNumCheck ^= serNum[i];
  3589     0CDA  0836               	movf	MFRC522_AntiColl@i,w
  3590     0CDB  0737               	addwf	MFRC522_AntiColl@serNum,w
  3591     0CDC  00FC               	movwf	??_MFRC522_AntiColl
  3592     0CDD  087C               	movf	??_MFRC522_AntiColl,w
  3593     0CDE  0084               	movwf	4
  3594     0CDF  1383               	bcf	3,7	;select IRP bank0
  3595     0CE0  0800               	movf	0,w
  3596     0CE1  00FF               	movwf	btemp+1
  3597     0CE2  087F               	movf	btemp+1,w
  3598     0CE3  06B2               	xorwf	MFRC522_AntiColl@serNumCheck,f
  3599     0CE4                     l2809:
  3600                           
  3601                           ;./RC522.h: 453:     }
  3602     0CE4  3001               	movlw	1
  3603     0CE5  00FF               	movwf	btemp+1
  3604     0CE6  087F               	movf	btemp+1,w
  3605     0CE7  07B6               	addwf	MFRC522_AntiColl@i,f
  3606     0CE8                     l2811:
  3607     0CE8  3004               	movlw	4
  3608     0CE9  0236               	subwf	MFRC522_AntiColl@i,w
  3609     0CEA  1C03               	skipc
  3610     0CEB  2CED               	goto	u2161
  3611     0CEC  2CEE               	goto	u2160
  3612     0CED                     u2161:
  3613     0CED  2CDA               	goto	l2807
  3614     0CEE                     u2160:
  3615     0CEE                     l2813:
  3616                           
  3617                           ;./RC522.h: 455:     if ( serNumCheck != serNum[4] )
  3618     0CEE  0837               	movf	MFRC522_AntiColl@serNum,w
  3619     0CEF  3E04               	addlw	4
  3620     0CF0  0084               	movwf	4
  3621     0CF1  0800               	movf	0,w
  3622     0CF2  0632               	xorwf	MFRC522_AntiColl@serNumCheck,w
  3623     0CF3  1903               	skipnz
  3624     0CF4  2CF6               	goto	u2171
  3625     0CF5  2CF7               	goto	u2170
  3626     0CF6                     u2171:
  3627     0CF6  2CF9               	goto	l367
  3628     0CF7                     u2170:
  3629     0CF7                     l2815:
  3630                           
  3631                           ;./RC522.h: 456:     {;./RC522.h: 457:       _status = 2;
  3632     0CF7  3002               	movlw	2
  3633     0CF8  00B5               	movwf	MFRC522_AntiColl@_status
  3634     0CF9                     l367:	
  3635                           ;./RC522.h: 459:   }
  3636                           
  3637                           
  3638                           ;./RC522.h: 460:   return _status;
  3639     0CF9  0835               	movf	MFRC522_AntiColl@_status,w
  3640     0CFA                     l371:
  3641     0CFA  0008               	return
  3642     0CFB                     __end_of_MFRC522_AntiColl:
  3643                           
  3644                           	psect	text11
  3645     0297                     __ptext11:	
  3646 ;; *************** function _MFRC522_ToCard *****************
  3647 ;; Defined at:
  3648 ;;		line 174 in file "./RC522.h"
  3649 ;; Parameters:    Size  Location     Type
  3650 ;;  command         1    wreg     unsigned char 
  3651 ;;  sendData        1    0[BANK0 ] PTR unsigned char 
  3652 ;;		 -> lenh_themthe@UID(10), lenh_themthe@TagType(2), lenh_mocua_quetthe@UID(10), lenh_mocua_quetthe@TagType(2), 
  3653 ;;		 -> MFRC522_Write@buff(18), MFRC522_Auth@buff(12), MFRC522_Halt@buff(4), MFRC522_SelectTag@buffer(9), 
  3654 ;;  sendLen         1    1[BANK0 ] unsigned char 
  3655 ;;  backData        1    2[BANK0 ] PTR unsigned char 
  3656 ;;		 -> lenh_themthe@UID(10), lenh_themthe@TagType(2), lenh_mocua_quetthe@UID(10), lenh_mocua_quetthe@TagType(2), 
  3657 ;;		 -> MFRC522_Write@buff(18), MFRC522_Auth@buff(12), MFRC522_Halt@buff(4), MFRC522_SelectTag@buffer(9), 
  3658 ;;  backLen         1    3[BANK0 ] PTR unsigned int 
  3659 ;;		 -> MFRC522_AntiColl@unLen(2), MFRC522_Read@unLen(2), MFRC522_Write@recvBits(2), MFRC522_Auth@recvBits(2), 
  3660 ;;		 -> MFRC522_Halt@unLen(2), MFRC522_SelectTag@recvBits(2), MFRC522_Request@backBits(2), 
  3661 ;; Auto vars:     Size  Location     Type
  3662 ;;  command         1   14[BANK0 ] unsigned char 
  3663 ;;  i               2   15[BANK0 ] unsigned int 
  3664 ;;  n               1   17[BANK0 ] unsigned char 
  3665 ;;  irqEn           1   13[BANK0 ] unsigned char 
  3666 ;;  lastBits        1   12[BANK0 ] unsigned char 
  3667 ;;  _status         1   11[BANK0 ] unsigned char 
  3668 ;;  waitIRq         1   10[BANK0 ] unsigned char 
  3669 ;; Return value:  Size  Location     Type
  3670 ;;                  1    wreg      unsigned char 
  3671 ;; Registers used:
  3672 ;;		wreg, fsr0l, fsr0h, status,2, status,0, btemp+1, pclath, cstack
  3673 ;; Tracked objects:
  3674 ;;		On entry : 0/0
  3675 ;;		On exit  : 0/0
  3676 ;;		Unchanged: 0/0
  3677 ;; Data sizes:     COMMON   BANK0   BANK1   BANK3   BANK2
  3678 ;;      Params:         0       4       0       0       0
  3679 ;;      Locals:         0       8       0       0       0
  3680 ;;      Temps:          0       6       0       0       0
  3681 ;;      Totals:         0      18       0       0       0
  3682 ;;Total ram usage:       18 bytes
  3683 ;; Hardware stack levels used: 1
  3684 ;; Hardware stack levels required when called: 3
  3685 ;; This function calls:
  3686 ;;		_MFRC522_Clear_Bit
  3687 ;;		_MFRC522_Rd
  3688 ;;		_MFRC522_Set_Bit
  3689 ;;		_MFRC522_Wr
  3690 ;; This function is called by:
  3691 ;;		_MFRC522_Request
  3692 ;;		_MFRC522_AntiColl
  3693 ;;		_MFRC522_SelectTag
  3694 ;;		_MFRC522_Halt
  3695 ;;		_MFRC522_Auth
  3696 ;;		_MFRC522_Write
  3697 ;;		_MFRC522_Read
  3698 ;; This function uses a non-reentrant model
  3699 ;;
  3700                           
  3701     0297                     _MFRC522_ToCard:	
  3702                           ;psect for function _MFRC522_ToCard
  3703                           
  3704                           
  3705                           ;incstack = 0
  3706                           ; Regs used in _MFRC522_ToCard: [wreg-fsr0h+status,2+status,0+btemp+1+pclath+cstack]
  3707                           ;MFRC522_ToCard@command stored from wreg
  3708     0297  1283               	bcf	3,5	;RP0=0, select bank0
  3709     0298  1303               	bcf	3,6	;RP1=0, select bank0
  3710     0299  00AE               	movwf	MFRC522_ToCard@command
  3711     029A                     l2511:
  3712                           
  3713                           ;./RC522.h: 174: char MFRC522_ToCard( char command, char *sendData, char sendLen, char *
      +                          backData, unsigned *backLen );./RC522.h: 175: {;./RC522.h: 176:   char _status = 2;
  3714     029A  3002               	movlw	2
  3715     029B  00AB               	movwf	MFRC522_ToCard@_status
  3716     029C                     l2513:
  3717                           
  3718                           ;./RC522.h: 177:   char irqEn = 0x00;
  3719     029C  01AD               	clrf	MFRC522_ToCard@irqEn
  3720     029D                     l2515:
  3721                           
  3722                           ;./RC522.h: 178:   char waitIRq = 0x00;
  3723     029D  01AA               	clrf	MFRC522_ToCard@waitIRq
  3724                           
  3725                           ;./RC522.h: 179:   char lastBits;;./RC522.h: 180:   char n;;./RC522.h: 181:   unsigned i
      +                          ;;./RC522.h: 183:   switch (command)
  3726     029E  2AA9               	goto	l2523
  3727     029F                     l2517:
  3728                           
  3729                           ;./RC522.h: 186:     {;./RC522.h: 187:       irqEn = 0x12;
  3730     029F  3012               	movlw	18
  3731     02A0  00AD               	movwf	MFRC522_ToCard@irqEn
  3732                           
  3733                           ;./RC522.h: 188:       waitIRq = 0x10;
  3734     02A1  3010               	movlw	16
  3735     02A2  00AA               	movwf	MFRC522_ToCard@waitIRq
  3736                           
  3737                           ;./RC522.h: 189:       break;
  3738     02A3  2AB9               	goto	l2525
  3739     02A4                     l2519:
  3740                           
  3741                           ;./RC522.h: 192:     {;./RC522.h: 193:       irqEn = 0x77;
  3742     02A4  3077               	movlw	119
  3743     02A5  00AD               	movwf	MFRC522_ToCard@irqEn
  3744                           
  3745                           ;./RC522.h: 194:       waitIRq = 0x30;
  3746     02A6  3030               	movlw	48
  3747     02A7  00AA               	movwf	MFRC522_ToCard@waitIRq
  3748                           
  3749                           ;./RC522.h: 195:       break;
  3750     02A8  2AB9               	goto	l2525
  3751     02A9                     l2523:
  3752     02A9  082E               	movf	MFRC522_ToCard@command,w
  3753     02AA  00A4               	movwf	??_MFRC522_ToCard
  3754     02AB  01A5               	clrf	??_MFRC522_ToCard+1
  3755                           
  3756                           ; Switch on 2 bytes has been partitioned into a top level switch of size 1, and 1 sub-sw
      +                          itches
  3757                           ; Switch size 1, requested type "simple"
  3758                           ; Number of cases is 1, Range of values is 0 to 0
  3759                           ; switch strategies available:
  3760                           ; Name         Instructions Cycles
  3761                           ; simple_byte            4     3 (average)
  3762                           ; direct_byte           11     8 (fixed)
  3763                           ; jumptable            260     6 (fixed)
  3764                           ;	Chosen strategy is simple_byte
  3765     02AC  0825               	movf	??_MFRC522_ToCard+1,w
  3766     02AD  3A00               	xorlw	0	; case 0
  3767     02AE  1903               	skipnz
  3768     02AF  2AB1               	goto	l3723
  3769     02B0  2AB9               	goto	l2525
  3770     02B1                     l3723:
  3771                           
  3772                           ; Switch size 1, requested type "simple"
  3773                           ; Number of cases is 2, Range of values is 12 to 14
  3774                           ; switch strategies available:
  3775                           ; Name         Instructions Cycles
  3776                           ; simple_byte            7     4 (average)
  3777                           ; direct_byte           20    11 (fixed)
  3778                           ; jumptable            263     9 (fixed)
  3779                           ;	Chosen strategy is simple_byte
  3780     02B1  0824               	movf	??_MFRC522_ToCard,w
  3781     02B2  3A0C               	xorlw	12	; case 12
  3782     02B3  1903               	skipnz
  3783     02B4  2AA4               	goto	l2519
  3784     02B5  3A02               	xorlw	2	; case 14
  3785     02B6  1903               	skipnz
  3786     02B7  2A9F               	goto	l2517
  3787     02B8  2AB9               	goto	l2525
  3788     02B9                     l2525:
  3789                           
  3790                           ;./RC522.h: 200:   MFRC522_Wr( 0x02, irqEn | 0x80 );
  3791     02B9  082D               	movf	MFRC522_ToCard@irqEn,w
  3792     02BA  3880               	iorlw	128
  3793     02BB  00F6               	movwf	MFRC522_Wr@value
  3794     02BC  3002               	movlw	2
  3795     02BD  120A  158A  221D  120A  118A  	fcall	_MFRC522_Wr
  3796                           
  3797                           ;./RC522.h: 201:   MFRC522_Clear_Bit( 0x04, 0x80 );
  3798     02C2  3080               	movlw	128
  3799     02C3  00F9               	movwf	MFRC522_Clear_Bit@mask
  3800     02C4  3004               	movlw	4
  3801     02C5  120A  158A  21D1  120A  118A  	fcall	_MFRC522_Clear_Bit
  3802                           
  3803                           ;./RC522.h: 202:   MFRC522_Set_Bit( 0x0A, 0x80 );
  3804     02CA  3080               	movlw	128
  3805     02CB  00F9               	movwf	MFRC522_Set_Bit@mask
  3806     02CC  300A               	movlw	10
  3807     02CD  120A  158A  21A0  120A  118A  	fcall	_MFRC522_Set_Bit
  3808                           
  3809                           ;./RC522.h: 203:   MFRC522_Wr( 0x01, 0x00 );
  3810     02D2  01F6               	clrf	MFRC522_Wr@value
  3811     02D3  3001               	movlw	1
  3812     02D4  120A  158A  221D  120A  118A  	fcall	_MFRC522_Wr
  3813     02D9                     l2527:
  3814                           
  3815                           ;./RC522.h: 208:   for ( i=0; i < sendLen; i++ )
  3816     02D9  1283               	bcf	3,5	;RP0=0, select bank0
  3817     02DA  1303               	bcf	3,6	;RP1=0, select bank0
  3818     02DB  01AF               	clrf	MFRC522_ToCard@i
  3819     02DC  01B0               	clrf	MFRC522_ToCard@i+1
  3820     02DD  2AF4               	goto	l2533
  3821     02DE                     l2529:
  3822                           
  3823                           ;./RC522.h: 209:   {;./RC522.h: 210:     MFRC522_Wr( 0x09, sendData[i] );
  3824     02DE  082F               	movf	MFRC522_ToCard@i,w
  3825     02DF  0720               	addwf	MFRC522_ToCard@sendData,w
  3826     02E0  00A4               	movwf	??_MFRC522_ToCard
  3827     02E1  0824               	movf	??_MFRC522_ToCard,w
  3828     02E2  0084               	movwf	4
  3829     02E3  1383               	bcf	3,7	;select IRP bank0
  3830     02E4  0800               	movf	0,w
  3831     02E5  00F6               	movwf	MFRC522_Wr@value
  3832     02E6  3009               	movlw	9
  3833     02E7  120A  158A  221D  120A  118A  	fcall	_MFRC522_Wr
  3834     02EC                     l2531:
  3835                           
  3836                           ;./RC522.h: 211:   }
  3837     02EC  3001               	movlw	1
  3838     02ED  1283               	bcf	3,5	;RP0=0, select bank0
  3839     02EE  1303               	bcf	3,6	;RP1=0, select bank0
  3840     02EF  07AF               	addwf	MFRC522_ToCard@i,f
  3841     02F0  1803               	skipnc
  3842     02F1  0AB0               	incf	MFRC522_ToCard@i+1,f
  3843     02F2  3000               	movlw	0
  3844     02F3  07B0               	addwf	MFRC522_ToCard@i+1,f
  3845     02F4                     l2533:
  3846     02F4  0821               	movf	MFRC522_ToCard@sendLen,w
  3847     02F5  00A4               	movwf	??_MFRC522_ToCard
  3848     02F6  01A5               	clrf	??_MFRC522_ToCard+1
  3849     02F7  0825               	movf	??_MFRC522_ToCard+1,w
  3850     02F8  0230               	subwf	MFRC522_ToCard@i+1,w
  3851     02F9  1D03               	skipz
  3852     02FA  2AFD               	goto	u1655
  3853     02FB  0824               	movf	??_MFRC522_ToCard,w
  3854     02FC  022F               	subwf	MFRC522_ToCard@i,w
  3855     02FD                     u1655:
  3856     02FD  1C03               	skipc
  3857     02FE  2B00               	goto	u1651
  3858     02FF  2B01               	goto	u1650
  3859     0300                     u1651:
  3860     0300  2ADE               	goto	l2529
  3861     0301                     u1650:
  3862     0301                     l2535:
  3863                           
  3864                           ;./RC522.h: 213:   MFRC522_Wr( 0x01, command );
  3865     0301  082E               	movf	MFRC522_ToCard@command,w
  3866     0302  00F6               	movwf	MFRC522_Wr@value
  3867     0303  3001               	movlw	1
  3868     0304  120A  158A  221D  120A  118A  	fcall	_MFRC522_Wr
  3869     0309                     l2537:
  3870                           
  3871                           ;./RC522.h: 214:   if (command == 0x0C )
  3872     0309  300C               	movlw	12
  3873     030A  1283               	bcf	3,5	;RP0=0, select bank0
  3874     030B  1303               	bcf	3,6	;RP1=0, select bank0
  3875     030C  062E               	xorwf	MFRC522_ToCard@command,w
  3876     030D  1D03               	btfss	3,2
  3877     030E  2B10               	goto	u1661
  3878     030F  2B11               	goto	u1660
  3879     0310                     u1661:
  3880     0310  2B19               	goto	l2541
  3881     0311                     u1660:
  3882     0311                     l2539:
  3883                           
  3884                           ;./RC522.h: 215:   {;./RC522.h: 216:     MFRC522_Set_Bit( 0x0D, 0x80 );
  3885     0311  3080               	movlw	128
  3886     0312  00F9               	movwf	MFRC522_Set_Bit@mask
  3887     0313  300D               	movlw	13
  3888     0314  120A  158A  21A0  120A  118A  	fcall	_MFRC522_Set_Bit
  3889     0319                     l2541:
  3890                           
  3891                           ;./RC522.h: 220:   i = 0xFFFF;
  3892     0319  30FF               	movlw	255
  3893     031A  1283               	bcf	3,5	;RP0=0, select bank0
  3894     031B  1303               	bcf	3,6	;RP1=0, select bank0
  3895     031C  00AF               	movwf	MFRC522_ToCard@i
  3896     031D  30FF               	movlw	255
  3897     031E  00B0               	movwf	MFRC522_ToCard@i+1
  3898     031F                     l2543:
  3899                           
  3900                           ;./RC522.h: 222:   {;./RC522.h: 225:     n = MFRC522_Rd( 0x04 );
  3901     031F  3004               	movlw	4
  3902     0320  120A  158A  2234  120A  118A  	fcall	_MFRC522_Rd
  3903     0325  1283               	bcf	3,5	;RP0=0, select bank0
  3904     0326  1303               	bcf	3,6	;RP1=0, select bank0
  3905     0327  00B1               	movwf	MFRC522_ToCard@n
  3906                           
  3907                           ;./RC522.h: 226:     i--;
  3908     0328  3001               	movlw	1
  3909     0329  02AF               	subwf	MFRC522_ToCard@i,f
  3910     032A  3000               	movlw	0
  3911     032B  1C03               	skipc
  3912     032C  03B0               	decf	MFRC522_ToCard@i+1,f
  3913     032D  02B0               	subwf	MFRC522_ToCard@i+1,f
  3914     032E                     l2545:
  3915                           
  3916                           ;./RC522.h: 227:   }
  3917     032E  082F               	movf	MFRC522_ToCard@i,w
  3918     032F  0430               	iorwf	MFRC522_ToCard@i+1,w
  3919     0330  1903               	btfsc	3,2
  3920     0331  2B33               	goto	u1671
  3921     0332  2B34               	goto	u1670
  3922     0333                     u1671:
  3923     0333  2B3E               	goto	l2551
  3924     0334                     u1670:
  3925     0334                     l2547:
  3926     0334  1831               	btfsc	MFRC522_ToCard@n,0
  3927     0335  2B37               	goto	u1681
  3928     0336  2B38               	goto	u1680
  3929     0337                     u1681:
  3930     0337  2B3E               	goto	l2551
  3931     0338                     u1680:
  3932     0338                     l2549:
  3933     0338  0831               	movf	MFRC522_ToCard@n,w
  3934     0339  052A               	andwf	MFRC522_ToCard@waitIRq,w
  3935     033A  1903               	btfsc	3,2
  3936     033B  2B3D               	goto	u1691
  3937     033C  2B3E               	goto	u1690
  3938     033D                     u1691:
  3939     033D  2B1F               	goto	l2543
  3940     033E                     u1690:
  3941     033E                     l2551:
  3942                           
  3943                           ;./RC522.h: 229:   MFRC522_Clear_Bit( 0x0D, 0x80 );
  3944     033E  3080               	movlw	128
  3945     033F  00F9               	movwf	MFRC522_Clear_Bit@mask
  3946     0340  300D               	movlw	13
  3947     0341  120A  158A  21D1  120A  118A  	fcall	_MFRC522_Clear_Bit
  3948     0346                     l2553:
  3949                           
  3950                           ;./RC522.h: 230:   if (i != 0)
  3951     0346  1283               	bcf	3,5	;RP0=0, select bank0
  3952     0347  1303               	bcf	3,6	;RP1=0, select bank0
  3953     0348  082F               	movf	MFRC522_ToCard@i,w
  3954     0349  0430               	iorwf	MFRC522_ToCard@i+1,w
  3955     034A  1903               	btfsc	3,2
  3956     034B  2B4D               	goto	u1701
  3957     034C  2B4E               	goto	u1700
  3958     034D                     u1701:
  3959     034D  2BFB               	goto	l298
  3960     034E                     u1700:
  3961     034E                     l2555:
  3962                           
  3963                           ;./RC522.h: 231:   {;./RC522.h: 232:     if( !( MFRC522_Rd( 0x06 ) & 0x1B ) )
  3964     034E  3006               	movlw	6
  3965     034F  120A  158A  2234  120A  118A  	fcall	_MFRC522_Rd
  3966     0354  391B               	andlw	27
  3967     0355  1D03               	btfss	3,2
  3968     0356  2B58               	goto	u1711
  3969     0357  2B59               	goto	u1710
  3970     0358                     u1711:
  3971     0358  2BF7               	goto	l2591
  3972     0359                     u1710:
  3973     0359                     l2557:
  3974                           
  3975                           ;./RC522.h: 233:     {;./RC522.h: 234:       _status = 0;
  3976     0359  1283               	bcf	3,5	;RP0=0, select bank0
  3977     035A  1303               	bcf	3,6	;RP1=0, select bank0
  3978     035B  01AB               	clrf	MFRC522_ToCard@_status
  3979     035C                     l2559:
  3980                           
  3981                           ;./RC522.h: 235:       if ( n & irqEn & 0x01 )
  3982     035C  082D               	movf	MFRC522_ToCard@irqEn,w
  3983     035D  0531               	andwf	MFRC522_ToCard@n,w
  3984     035E  00A4               	movwf	??_MFRC522_ToCard
  3985     035F  1C24               	btfss	??_MFRC522_ToCard,0
  3986     0360  2B62               	goto	u1721
  3987     0361  2B63               	goto	u1720
  3988     0362                     u1721:
  3989     0362  2B65               	goto	l2563
  3990     0363                     u1720:
  3991     0363                     l2561:
  3992                           
  3993                           ;./RC522.h: 236:       {;./RC522.h: 237:         _status = 1;
  3994     0363  01AB               	clrf	MFRC522_ToCard@_status
  3995     0364  0AAB               	incf	MFRC522_ToCard@_status,f
  3996     0365                     l2563:
  3997                           
  3998                           ;./RC522.h: 239:       if ( command == 0x0C )
  3999     0365  300C               	movlw	12
  4000     0366  062E               	xorwf	MFRC522_ToCard@command,w
  4001     0367  1D03               	btfss	3,2
  4002     0368  2B6A               	goto	u1731
  4003     0369  2B6B               	goto	u1730
  4004     036A                     u1731:
  4005     036A  2BFB               	goto	l298
  4006     036B                     u1730:
  4007     036B                     l2565:
  4008                           
  4009                           ;./RC522.h: 240:       {;./RC522.h: 241:         n = MFRC522_Rd( 0x0A );
  4010     036B  300A               	movlw	10
  4011     036C  120A  158A  2234  120A  118A  	fcall	_MFRC522_Rd
  4012     0371  1283               	bcf	3,5	;RP0=0, select bank0
  4013     0372  1303               	bcf	3,6	;RP1=0, select bank0
  4014     0373  00B1               	movwf	MFRC522_ToCard@n
  4015                           
  4016                           ;./RC522.h: 242:         lastBits = MFRC522_Rd( 0x0C ) & 0x07;
  4017     0374  300C               	movlw	12
  4018     0375  120A  158A  2234  120A  118A  	fcall	_MFRC522_Rd
  4019     037A  3907               	andlw	7
  4020     037B  1283               	bcf	3,5	;RP0=0, select bank0
  4021     037C  1303               	bcf	3,6	;RP1=0, select bank0
  4022     037D  00AC               	movwf	MFRC522_ToCard@lastBits
  4023     037E                     l2567:
  4024                           
  4025                           ;./RC522.h: 243:         if (lastBits)
  4026     037E  082C               	movf	MFRC522_ToCard@lastBits,w
  4027     037F  1903               	btfsc	3,2
  4028     0380  2B82               	goto	u1741
  4029     0381  2B83               	goto	u1740
  4030     0382                     u1741:
  4031     0382  2BA8               	goto	l2571
  4032     0383                     u1740:
  4033     0383                     l2569:
  4034                           
  4035                           ;./RC522.h: 244:         {;./RC522.h: 245:           *backLen = (n-1) * 8 + lastBits;
  4036     0383  0831               	movf	MFRC522_ToCard@n,w
  4037     0384  00A4               	movwf	??_MFRC522_ToCard
  4038     0385  01A5               	clrf	??_MFRC522_ToCard+1
  4039     0386  1003               	clrc
  4040     0387  0DA4               	rlf	??_MFRC522_ToCard,f
  4041     0388  0DA5               	rlf	??_MFRC522_ToCard+1,f
  4042     0389  1003               	clrc
  4043     038A  0DA4               	rlf	??_MFRC522_ToCard,f
  4044     038B  0DA5               	rlf	??_MFRC522_ToCard+1,f
  4045     038C  1003               	clrc
  4046     038D  0DA4               	rlf	??_MFRC522_ToCard,f
  4047     038E  0DA5               	rlf	??_MFRC522_ToCard+1,f
  4048     038F  082C               	movf	MFRC522_ToCard@lastBits,w
  4049     0390  0724               	addwf	??_MFRC522_ToCard,w
  4050     0391  00A6               	movwf	??_MFRC522_ToCard+2
  4051     0392  3000               	movlw	0
  4052     0393  1803               	skipnc
  4053     0394  3001               	movlw	1
  4054     0395  0725               	addwf	??_MFRC522_ToCard+1,w
  4055     0396  00A7               	movwf	??_MFRC522_ToCard+3
  4056     0397  0826               	movf	??_MFRC522_ToCard+2,w
  4057     0398  3EF8               	addlw	248
  4058     0399  00A8               	movwf	??_MFRC522_ToCard+4
  4059     039A  0827               	movf	??_MFRC522_ToCard+3,w
  4060     039B  1803               	skipnc
  4061     039C  3E01               	addlw	1
  4062     039D  3EFF               	addlw	255
  4063     039E  00A9               	movwf	??_MFRC522_ToCard+5
  4064     039F  0823               	movf	MFRC522_ToCard@backLen,w
  4065     03A0  0084               	movwf	4
  4066     03A1  0828               	movf	??_MFRC522_ToCard+4,w
  4067     03A2  1383               	bcf	3,7	;select IRP bank0
  4068     03A3  0080               	movwf	0
  4069     03A4  0A84               	incf	4,f
  4070     03A5  0829               	movf	??_MFRC522_ToCard+5,w
  4071     03A6  0080               	movwf	0
  4072                           
  4073                           ;./RC522.h: 246:         }
  4074     03A7  2BBC               	goto	l2573
  4075     03A8                     l2571:
  4076                           
  4077                           ;./RC522.h: 248:         {;./RC522.h: 249:           *backLen = n * 8;
  4078     03A8  0831               	movf	MFRC522_ToCard@n,w
  4079     03A9  00A4               	movwf	??_MFRC522_ToCard
  4080     03AA  01A5               	clrf	??_MFRC522_ToCard+1
  4081     03AB  1003               	clrc
  4082     03AC  0DA4               	rlf	??_MFRC522_ToCard,f
  4083     03AD  0DA5               	rlf	??_MFRC522_ToCard+1,f
  4084     03AE  1003               	clrc
  4085     03AF  0DA4               	rlf	??_MFRC522_ToCard,f
  4086     03B0  0DA5               	rlf	??_MFRC522_ToCard+1,f
  4087     03B1  1003               	clrc
  4088     03B2  0DA4               	rlf	??_MFRC522_ToCard,f
  4089     03B3  0DA5               	rlf	??_MFRC522_ToCard+1,f
  4090     03B4  0823               	movf	MFRC522_ToCard@backLen,w
  4091     03B5  0084               	movwf	4
  4092     03B6  0824               	movf	??_MFRC522_ToCard,w
  4093     03B7  1383               	bcf	3,7	;select IRP bank0
  4094     03B8  0080               	movwf	0
  4095     03B9  0A84               	incf	4,f
  4096     03BA  0825               	movf	??_MFRC522_ToCard+1,w
  4097     03BB  0080               	movwf	0
  4098     03BC                     l2573:
  4099                           
  4100                           ;./RC522.h: 251:         if (n == 0)
  4101     03BC  0831               	movf	MFRC522_ToCard@n,w
  4102     03BD  1D03               	btfss	3,2
  4103     03BE  2BC0               	goto	u1751
  4104     03BF  2BC1               	goto	u1750
  4105     03C0                     u1751:
  4106     03C0  2BC3               	goto	l2577
  4107     03C1                     u1750:
  4108     03C1                     l2575:
  4109                           
  4110                           ;./RC522.h: 252:         {;./RC522.h: 253:           n = 1;
  4111     03C1  01B1               	clrf	MFRC522_ToCard@n
  4112     03C2  0AB1               	incf	MFRC522_ToCard@n,f
  4113     03C3                     l2577:
  4114                           
  4115                           ;./RC522.h: 255:         if (n > 16)
  4116     03C3  3011               	movlw	17
  4117     03C4  0231               	subwf	MFRC522_ToCard@n,w
  4118     03C5  1C03               	skipc
  4119     03C6  2BC8               	goto	u1761
  4120     03C7  2BC9               	goto	u1760
  4121     03C8                     u1761:
  4122     03C8  2BCB               	goto	l2581
  4123     03C9                     u1760:
  4124     03C9                     l2579:
  4125                           
  4126                           ;./RC522.h: 256:         {;./RC522.h: 257:           n = 16;
  4127     03C9  3010               	movlw	16
  4128     03CA  00B1               	movwf	MFRC522_ToCard@n
  4129     03CB                     l2581:
  4130                           
  4131                           ;./RC522.h: 260:         for (i=0; i < n; i++)
  4132     03CB  01AF               	clrf	MFRC522_ToCard@i
  4133     03CC  01B0               	clrf	MFRC522_ToCard@i+1
  4134     03CD  2BE3               	goto	l2587
  4135     03CE                     l2583:
  4136                           
  4137                           ;./RC522.h: 261:         {;./RC522.h: 262:           backData[i] = MFRC522_Rd( 0x09 );
  4138     03CE  082F               	movf	MFRC522_ToCard@i,w
  4139     03CF  0722               	addwf	MFRC522_ToCard@backData,w
  4140     03D0  00A4               	movwf	??_MFRC522_ToCard
  4141     03D1  0824               	movf	??_MFRC522_ToCard,w
  4142     03D2  0084               	movwf	4
  4143     03D3  3009               	movlw	9
  4144     03D4  120A  158A  2234  120A  118A  	fcall	_MFRC522_Rd
  4145     03D9  1383               	bcf	3,7	;select IRP bank0
  4146     03DA  0080               	movwf	0
  4147     03DB                     l2585:
  4148                           
  4149                           ;./RC522.h: 263:         }
  4150     03DB  3001               	movlw	1
  4151     03DC  1283               	bcf	3,5	;RP0=0, select bank0
  4152     03DD  1303               	bcf	3,6	;RP1=0, select bank0
  4153     03DE  07AF               	addwf	MFRC522_ToCard@i,f
  4154     03DF  1803               	skipnc
  4155     03E0  0AB0               	incf	MFRC522_ToCard@i+1,f
  4156     03E1  3000               	movlw	0
  4157     03E2  07B0               	addwf	MFRC522_ToCard@i+1,f
  4158     03E3                     l2587:
  4159     03E3  0831               	movf	MFRC522_ToCard@n,w
  4160     03E4  00A4               	movwf	??_MFRC522_ToCard
  4161     03E5  01A5               	clrf	??_MFRC522_ToCard+1
  4162     03E6  0825               	movf	??_MFRC522_ToCard+1,w
  4163     03E7  0230               	subwf	MFRC522_ToCard@i+1,w
  4164     03E8  1D03               	skipz
  4165     03E9  2BEC               	goto	u1775
  4166     03EA  0824               	movf	??_MFRC522_ToCard,w
  4167     03EB  022F               	subwf	MFRC522_ToCard@i,w
  4168     03EC                     u1775:
  4169     03EC  1C03               	skipc
  4170     03ED  2BEF               	goto	u1771
  4171     03EE  2BF0               	goto	u1770
  4172     03EF                     u1771:
  4173     03EF  2BCE               	goto	l2583
  4174     03F0                     u1770:
  4175     03F0                     l2589:
  4176                           
  4177                           ;./RC522.h: 265:   backData[i] = 0;
  4178     03F0  082F               	movf	MFRC522_ToCard@i,w
  4179     03F1  0722               	addwf	MFRC522_ToCard@backData,w
  4180     03F2  00A4               	movwf	??_MFRC522_ToCard
  4181     03F3  0824               	movf	??_MFRC522_ToCard,w
  4182     03F4  0084               	movwf	4
  4183     03F5  0180               	clrf	0
  4184     03F6  2BFB               	goto	l298
  4185     03F7                     l2591:
  4186                           
  4187                           ;./RC522.h: 269:     {;./RC522.h: 270:       _status = 2;
  4188     03F7  3002               	movlw	2
  4189     03F8  1283               	bcf	3,5	;RP0=0, select bank0
  4190     03F9  1303               	bcf	3,6	;RP1=0, select bank0
  4191     03FA  00AB               	movwf	MFRC522_ToCard@_status
  4192     03FB                     l298:	
  4193                           ;./RC522.h: 272:   }
  4194                           
  4195                           
  4196                           ;./RC522.h: 275:   return _status;
  4197     03FB  082B               	movf	MFRC522_ToCard@_status,w
  4198     03FC                     l310:
  4199     03FC  0008               	return
  4200     03FD                     __end_of_MFRC522_ToCard:
  4201                           
  4202                           	psect	text12
  4203     0041                     __ptext12:	
  4204 ;; *************** function _lenh_mocua_matkhau *****************
  4205 ;; Defined at:
  4206 ;;		line 121 in file "./menu.h"
  4207 ;; Parameters:    Size  Location     Type
  4208 ;;		None
  4209 ;; Auto vars:     Size  Location     Type
  4210 ;;  nutnhan         1    8[BANK0 ] unsigned char 
  4211 ;;  a               6    0[BANK0 ] unsigned char [6]
  4212 ;;  i               2   10[BANK0 ] int 
  4213 ;;  flagmksai       2    6[BANK0 ] int 
  4214 ;;  j               1    9[BANK0 ] unsigned char 
  4215 ;; Return value:  Size  Location     Type
  4216 ;;                  1    wreg      unsigned char 
  4217 ;; Registers used:
  4218 ;;		wreg, fsr0l, fsr0h, status,2, status,0, btemp+1, pclath, cstack
  4219 ;; Tracked objects:
  4220 ;;		On entry : 0/0
  4221 ;;		On exit  : 0/0
  4222 ;;		Unchanged: 0/0
  4223 ;; Data sizes:     COMMON   BANK0   BANK1   BANK3   BANK2
  4224 ;;      Params:         0       0       0       0       0
  4225 ;;      Locals:         0      12       0       0       0
  4226 ;;      Temps:          3       0       0       0       0
  4227 ;;      Totals:         3      12       0       0       0
  4228 ;;Total ram usage:       15 bytes
  4229 ;; Hardware stack levels used: 1
  4230 ;; Hardware stack levels required when called: 3
  4231 ;; This function calls:
  4232 ;;		_chuoi_kytu
  4233 ;;		_clear_lcd
  4234 ;;		_du_lieu
  4235 ;;		_failunlock
  4236 ;;		_lenh
  4237 ;;		_readEEPROM
  4238 ;;		_switch_press_scan
  4239 ;;		_unlock
  4240 ;;		_writeEEPROM
  4241 ;; This function is called by:
  4242 ;;		_taplenh_menu
  4243 ;; This function uses a non-reentrant model
  4244 ;;
  4245                           
  4246     0041                     _lenh_mocua_matkhau:	
  4247                           ;psect for function _lenh_mocua_matkhau
  4248                           
  4249     0041                     l3069:	
  4250                           ;incstack = 0
  4251                           ; Regs used in _lenh_mocua_matkhau: [wreg-fsr0h+status,2+status,0+btemp+1+pclath+cstack]
  4252                           
  4253                           
  4254                           ;./menu.h: 122:     j = 0xF0;
  4255     0041  1283               	bcf	3,5	;RP0=0, select bank0
  4256     0042  1303               	bcf	3,6	;RP1=0, select bank0
  4257     0043  01A6               	clrf	lenh_mocua_matkhau@flagmksai
  4258     0044  01A7               	clrf	lenh_mocua_matkhau@flagmksai+1
  4259     0045                     l3071:
  4260                           
  4261                           ;./menu.h: 123:     for(i=0;i<6;i++){
  4262     0045  30F0               	movlw	240
  4263     0046  00A9               	movwf	lenh_mocua_matkhau@j
  4264     0047                     l3073:
  4265                           
  4266                           ;./menu.h: 124:         j = j + 0x01;
  4267     0047  3020               	movlw	lenh_mocua_matkhau@a& (0+255)
  4268     0048  0084               	movwf	4
  4269     0049  0863               	movf	lenh_mocua_matkhau@F1281,w
  4270     004A  1383               	bcf	3,7	;select IRP bank0
  4271     004B  0080               	movwf	0
  4272     004C  0A84               	incf	4,f
  4273     004D  0864               	movf	lenh_mocua_matkhau@F1281+1,w
  4274     004E  0080               	movwf	0
  4275     004F  0A84               	incf	4,f
  4276     0050  0865               	movf	lenh_mocua_matkhau@F1281+2,w
  4277     0051  0080               	movwf	0
  4278     0052  0A84               	incf	4,f
  4279     0053  0866               	movf	lenh_mocua_matkhau@F1281+3,w
  4280     0054  0080               	movwf	0
  4281     0055  0A84               	incf	4,f
  4282     0056  0867               	movf	lenh_mocua_matkhau@F1281+4,w
  4283     0057  0080               	movwf	0
  4284     0058  0A84               	incf	4,f
  4285     0059  0868               	movf	lenh_mocua_matkhau@F1281+5,w
  4286     005A  0080               	movwf	0
  4287     005B                     l3075:
  4288                           
  4289                           ;./menu.h: 125:         a[i]= readEEPROM(j);
  4290     005B  120A  118A  200C  120A  118A  	fcall	_clear_lcd
  4291     0060                     l3077:
  4292                           
  4293                           ;./menu.h: 126:     }
  4294     0060  3080               	movlw	128
  4295     0061  120A  158A  22B4  120A  118A  	fcall	_lenh
  4296     0066                     l3079:
  4297                           
  4298                           ;./menu.h: 127: 
  4299     0066  302E               	movlw	low (STR_6| (0+32768))
  4300     0067  00F2               	movwf	chuoi_kytu@a
  4301     0068  3089               	movlw	high (STR_6| (0+32768))
  4302     0069  00F3               	movwf	chuoi_kytu@a+1
  4303     006A  120A  158A  236D  120A  118A  	fcall	_chuoi_kytu
  4304     006F                     l3081:
  4305                           
  4306                           ;./menu.h: 128:     for(i=0;i<6;i++){
  4307     006F  30E0               	movlw	224
  4308     0070  120A  158A  2193  120A  118A  	fcall	_readEEPROM
  4309     0075  3AFF               	xorlw	255
  4310     0076  1D03               	skipz
  4311     0077  2879               	goto	u2331
  4312     0078  287A               	goto	u2330
  4313     0079                     u2331:
  4314     0079  28B0               	goto	l3101
  4315     007A                     u2330:
  4316     007A                     l3083:
  4317                           
  4318                           ;./menu.h: 129:         char nutnhan = switch_press_scan();
  4319     007A  1283               	bcf	3,5	;RP0=0, select bank0
  4320     007B  1303               	bcf	3,6	;RP1=0, select bank0
  4321     007C  1405               	bsf	5,0	;volatile
  4322     007D                     l3085:
  4323                           
  4324                           ;./menu.h: 130:         du_lieu(nutnhan);
  4325     007D  3003               	movlw	3
  4326     007E  00FD               	movwf	??_lenh_mocua_matkhau+2
  4327     007F  308A               	movlw	138
  4328     0080  00FC               	movwf	??_lenh_mocua_matkhau+1
  4329     0081  3055               	movlw	85
  4330     0082  00FB               	movwf	??_lenh_mocua_matkhau
  4331     0083                     u3077:
  4332     0083  0BFB               	decfsz	??_lenh_mocua_matkhau,f
  4333     0084  2883               	goto	u3077
  4334     0085  0BFC               	decfsz	??_lenh_mocua_matkhau+1,f
  4335     0086  2883               	goto	u3077
  4336     0087  0BFD               	decfsz	??_lenh_mocua_matkhau+2,f
  4337     0088  2883               	goto	u3077
  4338     0089  288A               	nop2
  4339     008A                     l3087:
  4340                           
  4341                           ;./menu.h: 131:         if(nutnhan != a[i]){
  4342     008A  1283               	bcf	3,5	;RP0=0, select bank0
  4343     008B  1303               	bcf	3,6	;RP1=0, select bank0
  4344     008C  01AA               	clrf	lenh_mocua_matkhau@i
  4345     008D  01AB               	clrf	lenh_mocua_matkhau@i+1
  4346     008E                     l3093:
  4347                           
  4348                           ;./menu.h: 132:             flagmksai = 1;
  4349     008E  1283               	bcf	3,5	;RP0=0, select bank0
  4350     008F  1303               	bcf	3,6	;RP1=0, select bank0
  4351     0090  0829               	movf	lenh_mocua_matkhau@j,w
  4352     0091  3E01               	addlw	1
  4353     0092  00A9               	movwf	lenh_mocua_matkhau@j
  4354     0093                     l3095:
  4355                           
  4356                           ;./menu.h: 133:         }
  4357     0093  3030               	movlw	48
  4358     0094  00F0               	movwf	writeEEPROM@DATA
  4359     0095  0829               	movf	lenh_mocua_matkhau@j,w
  4360     0096  120A  158A  2266  120A  118A  	fcall	_writeEEPROM
  4361     009B                     l3097:
  4362                           
  4363                           ;./menu.h: 134:         PORTAbits.RA0 = 1;
  4364     009B  3001               	movlw	1
  4365     009C  1283               	bcf	3,5	;RP0=0, select bank0
  4366     009D  1303               	bcf	3,6	;RP1=0, select bank0
  4367     009E  07AA               	addwf	lenh_mocua_matkhau@i,f
  4368     009F  1803               	skipnc
  4369     00A0  0AAB               	incf	lenh_mocua_matkhau@i+1,f
  4370     00A1  3000               	movlw	0
  4371     00A2  07AB               	addwf	lenh_mocua_matkhau@i+1,f
  4372     00A3                     l3099:
  4373     00A3  082B               	movf	lenh_mocua_matkhau@i+1,w
  4374     00A4  3A80               	xorlw	128
  4375     00A5  00FF               	movwf	btemp+1
  4376     00A6  3080               	movlw	128
  4377     00A7  027F               	subwf	btemp+1,w
  4378     00A8  1D03               	skipz
  4379     00A9  28AC               	goto	u2345
  4380     00AA  3006               	movlw	6
  4381     00AB  022A               	subwf	lenh_mocua_matkhau@i,w
  4382     00AC                     u2345:
  4383     00AC  1C03               	skipc
  4384     00AD  28AF               	goto	u2341
  4385     00AE  28B0               	goto	u2340
  4386     00AF                     u2341:
  4387     00AF  288E               	goto	l3093
  4388     00B0                     u2340:
  4389     00B0                     l3101:
  4390                           
  4391                           ;./menu.h: 137:     }
  4392     00B0  30C0               	movlw	192
  4393     00B1  120A  158A  22B4  120A  118A  	fcall	_lenh
  4394     00B6                     l3103:
  4395                           
  4396                           ;./menu.h: 138:     if(flagmksai != 1){
  4397     00B6  30F0               	movlw	240
  4398     00B7  1283               	bcf	3,5	;RP0=0, select bank0
  4399     00B8  1303               	bcf	3,6	;RP1=0, select bank0
  4400     00B9  00A9               	movwf	lenh_mocua_matkhau@j
  4401     00BA                     l3105:
  4402                           
  4403                           ;./menu.h: 139:     unlock();}else if(flagmksai == 1){
  4404     00BA  01AA               	clrf	lenh_mocua_matkhau@i
  4405     00BB  01AB               	clrf	lenh_mocua_matkhau@i+1
  4406     00BC                     l3111:
  4407                           
  4408                           ;./menu.h: 140:         failunlock();
  4409     00BC  1283               	bcf	3,5	;RP0=0, select bank0
  4410     00BD  1303               	bcf	3,6	;RP1=0, select bank0
  4411     00BE  0829               	movf	lenh_mocua_matkhau@j,w
  4412     00BF  3E01               	addlw	1
  4413     00C0  00A9               	movwf	lenh_mocua_matkhau@j
  4414     00C1                     l3113:
  4415                           
  4416                           ;./menu.h: 141:     }
  4417     00C1  082A               	movf	lenh_mocua_matkhau@i,w
  4418     00C2  3E20               	addlw	(low (lenh_mocua_matkhau@a| 0))& (0+255)
  4419     00C3  0084               	movwf	4
  4420     00C4  0829               	movf	lenh_mocua_matkhau@j,w
  4421     00C5  120A  158A  2193  120A  118A  	fcall	_readEEPROM
  4422     00CA  1383               	bcf	3,7	;select IRP bank0
  4423     00CB  0080               	movwf	0
  4424     00CC                     l3115:
  4425                           
  4426                           ;./menu.h: 142: }
  4427     00CC  3001               	movlw	1
  4428     00CD  1283               	bcf	3,5	;RP0=0, select bank0
  4429     00CE  1303               	bcf	3,6	;RP1=0, select bank0
  4430     00CF  07AA               	addwf	lenh_mocua_matkhau@i,f
  4431     00D0  1803               	skipnc
  4432     00D1  0AAB               	incf	lenh_mocua_matkhau@i+1,f
  4433     00D2  3000               	movlw	0
  4434     00D3  07AB               	addwf	lenh_mocua_matkhau@i+1,f
  4435     00D4                     l3117:
  4436     00D4  082B               	movf	lenh_mocua_matkhau@i+1,w
  4437     00D5  3A80               	xorlw	128
  4438     00D6  00FF               	movwf	btemp+1
  4439     00D7  3080               	movlw	128
  4440     00D8  027F               	subwf	btemp+1,w
  4441     00D9  1D03               	skipz
  4442     00DA  28DD               	goto	u2355
  4443     00DB  3006               	movlw	6
  4444     00DC  022A               	subwf	lenh_mocua_matkhau@i,w
  4445     00DD                     u2355:
  4446     00DD  1C03               	skipc
  4447     00DE  28E0               	goto	u2351
  4448     00DF  28E1               	goto	u2350
  4449     00E0                     u2351:
  4450     00E0  28BC               	goto	l3111
  4451     00E1                     u2350:
  4452     00E1                     l3119:
  4453                           
  4454                           ;./menu.h: 144: unsigned char lenh_themthe(){
  4455     00E1  1283               	bcf	3,5	;RP0=0, select bank0
  4456     00E2  1303               	bcf	3,6	;RP1=0, select bank0
  4457     00E3  01AA               	clrf	lenh_mocua_matkhau@i
  4458     00E4  01AB               	clrf	lenh_mocua_matkhau@i+1
  4459     00E5                     l3125:
  4460                           
  4461                           ;./menu.h: 145: 
  4462     00E5  120A  158A  21C0  120A  118A  	fcall	_switch_press_scan
  4463     00EA  1283               	bcf	3,5	;RP0=0, select bank0
  4464     00EB  1303               	bcf	3,6	;RP1=0, select bank0
  4465     00EC  00A8               	movwf	lenh_mocua_matkhau@nutnhan
  4466                           
  4467                           ;./menu.h: 146:     int i, flagmksai = 0;
  4468     00ED  0828               	movf	lenh_mocua_matkhau@nutnhan,w
  4469     00EE  120A  158A  22D4  120A  118A  	fcall	_du_lieu
  4470     00F3                     l3127:
  4471                           
  4472                           ;./menu.h: 147:     unsigned char j = 0xF0;
  4473     00F3  1283               	bcf	3,5	;RP0=0, select bank0
  4474     00F4  1303               	bcf	3,6	;RP1=0, select bank0
  4475     00F5  082A               	movf	lenh_mocua_matkhau@i,w
  4476     00F6  3E20               	addlw	(low (lenh_mocua_matkhau@a| 0))& (0+255)
  4477     00F7  0084               	movwf	4
  4478     00F8  1383               	bcf	3,7	;select IRP bank0
  4479     00F9  0800               	movf	0,w
  4480     00FA  0628               	xorwf	lenh_mocua_matkhau@nutnhan,w
  4481     00FB  1903               	skipnz
  4482     00FC  28FE               	goto	u2361
  4483     00FD  28FF               	goto	u2360
  4484     00FE                     u2361:
  4485     00FE  2903               	goto	l3131
  4486     00FF                     u2360:
  4487     00FF                     l3129:
  4488                           
  4489                           ;./menu.h: 148:     char a[6] = {'0', '0', '0', '0', '0', '0'};
  4490     00FF  3001               	movlw	1
  4491     0100  00A6               	movwf	lenh_mocua_matkhau@flagmksai
  4492     0101  3000               	movlw	0
  4493     0102  00A7               	movwf	lenh_mocua_matkhau@flagmksai+1
  4494     0103                     l3131:
  4495                           
  4496                           ;./menu.h: 150:     lenh(0x80);
  4497     0103  1405               	bsf	5,0	;volatile
  4498                           
  4499                           ;./menu.h: 151:     chuoi_kytu("Nhap pass");
  4500     0104  3003               	movlw	3
  4501     0105  00FD               	movwf	??_lenh_mocua_matkhau+2
  4502     0106  308A               	movlw	138
  4503     0107  00FC               	movwf	??_lenh_mocua_matkhau+1
  4504     0108  3055               	movlw	85
  4505     0109  00FB               	movwf	??_lenh_mocua_matkhau
  4506     010A                     u3087:
  4507     010A  0BFB               	decfsz	??_lenh_mocua_matkhau,f
  4508     010B  290A               	goto	u3087
  4509     010C  0BFC               	decfsz	??_lenh_mocua_matkhau+1,f
  4510     010D  290A               	goto	u3087
  4511     010E  0BFD               	decfsz	??_lenh_mocua_matkhau+2,f
  4512     010F  290A               	goto	u3087
  4513     0110  2911               	nop2
  4514     0111                     l3133:
  4515                           
  4516                           ;./menu.h: 152:     if(readEEPROM(0xE0)== 0xFF){
  4517     0111  1283               	bcf	3,5	;RP0=0, select bank0
  4518     0112  1303               	bcf	3,6	;RP1=0, select bank0
  4519     0113  1005               	bcf	5,0	;volatile
  4520                           
  4521                           ;./menu.h: 153:         PORTAbits.RA0 = 1;
  4522     0114  3001               	movlw	1
  4523     0115  07AA               	addwf	lenh_mocua_matkhau@i,f
  4524     0116  1803               	skipnc
  4525     0117  0AAB               	incf	lenh_mocua_matkhau@i+1,f
  4526     0118  3000               	movlw	0
  4527     0119  07AB               	addwf	lenh_mocua_matkhau@i+1,f
  4528     011A                     l3135:
  4529     011A  082B               	movf	lenh_mocua_matkhau@i+1,w
  4530     011B  3A80               	xorlw	128
  4531     011C  00FF               	movwf	btemp+1
  4532     011D  3080               	movlw	128
  4533     011E  027F               	subwf	btemp+1,w
  4534     011F  1D03               	skipz
  4535     0120  2923               	goto	u2375
  4536     0121  3006               	movlw	6
  4537     0122  022A               	subwf	lenh_mocua_matkhau@i,w
  4538     0123                     u2375:
  4539     0123  1C03               	skipc
  4540     0124  2926               	goto	u2371
  4541     0125  2927               	goto	u2370
  4542     0126                     u2371:
  4543     0126  28E5               	goto	l3125
  4544     0127                     u2370:
  4545     0127                     l3137:
  4546                           
  4547                           ;./menu.h: 154:         _delay((unsigned long)((100)*(20000000/4000.0)));
  4548     0127  1283               	bcf	3,5	;RP0=0, select bank0
  4549     0128  1303               	bcf	3,6	;RP1=0, select bank0
  4550     0129  0326               	decf	lenh_mocua_matkhau@flagmksai,w
  4551     012A  0427               	iorwf	lenh_mocua_matkhau@flagmksai+1,w
  4552     012B  1903               	btfsc	3,2
  4553     012C  292E               	goto	u2381
  4554     012D  292F               	goto	u2380
  4555     012E                     u2381:
  4556     012E  2935               	goto	l3141
  4557     012F                     u2380:
  4558     012F                     l3139:
  4559                           
  4560                           ;./menu.h: 155:          for(i=0;i<6;i++){
  4561     012F  120A  158A  259A  120A  118A  	fcall	_unlock
  4562     0134  2940               	goto	l422
  4563     0135                     l3141:
  4564     0135  0326               	decf	lenh_mocua_matkhau@flagmksai,w
  4565     0136  0427               	iorwf	lenh_mocua_matkhau@flagmksai+1,w
  4566     0137  1D03               	btfss	3,2
  4567     0138  293A               	goto	u2391
  4568     0139  293B               	goto	u2390
  4569     013A                     u2391:
  4570     013A  2940               	goto	l422
  4571     013B                     u2390:
  4572     013B                     l3143:
  4573                           
  4574                           ;./menu.h: 156:             j = j + 0x01;
  4575     013B  120A  158A  2454  120A  118A  	fcall	_failunlock
  4576     0140                     l422:
  4577     0140  0008               	return
  4578     0141                     __end_of_lenh_mocua_matkhau:
  4579                           
  4580                           	psect	text13
  4581     0D9A                     __ptext13:	
  4582 ;; *************** function _unlock *****************
  4583 ;; Defined at:
  4584 ;;		line 41 in file "./menu.h"
  4585 ;; Parameters:    Size  Location     Type
  4586 ;;		None
  4587 ;; Auto vars:     Size  Location     Type
  4588 ;;  j               1    8[COMMON] unsigned char 
  4589 ;;  i               2    9[COMMON] int 
  4590 ;; Return value:  Size  Location     Type
  4591 ;;                  1    wreg      void 
  4592 ;; Registers used:
  4593 ;;		wreg, fsr0l, fsr0h, status,2, status,0, btemp+1, pclath, cstack
  4594 ;; Tracked objects:
  4595 ;;		On entry : 0/0
  4596 ;;		On exit  : 0/0
  4597 ;;		Unchanged: 0/0
  4598 ;; Data sizes:     COMMON   BANK0   BANK1   BANK3   BANK2
  4599 ;;      Params:         0       0       0       0       0
  4600 ;;      Locals:         3       0       0       0       0
  4601 ;;      Temps:          3       0       0       0       0
  4602 ;;      Totals:         6       0       0       0       0
  4603 ;;Total ram usage:        6 bytes
  4604 ;; Hardware stack levels used: 1
  4605 ;; Hardware stack levels required when called: 2
  4606 ;; This function calls:
  4607 ;;		_chuoi_kytu
  4608 ;;		_clear_lcd
  4609 ;;		_du_lieu
  4610 ;;		_lenh
  4611 ;; This function is called by:
  4612 ;;		_lenh_mocua_quetthe
  4613 ;;		_lenh_mocua_matkhau
  4614 ;; This function uses a non-reentrant model
  4615 ;;
  4616                           
  4617     0D9A                     _unlock:	
  4618                           ;psect for function _unlock
  4619                           
  4620     0D9A                     l2905:	
  4621                           ;incstack = 0
  4622                           ; Regs used in _unlock: [wreg-fsr0h+status,2+status,0+btemp+1+pclath+cstack]
  4623                           
  4624                           
  4625                           ;./menu.h: 42:             for(i = 57; i>47; i--){;./menu.h: 43:                 unsigne
      +                          d char j = (unsigned char)i;
  4626     0D9A  1283               	bcf	3,5	;RP0=0, select bank0
  4627     0D9B  1303               	bcf	3,6	;RP1=0, select bank0
  4628     0D9C  1405               	bsf	5,0	;volatile
  4629     0D9D                     l2907:
  4630                           
  4631                           ;./menu.h: 44:                 lenh(0xDA);
  4632     0D9D  300D               	movlw	13
  4633     0D9E  00F7               	movwf	??_unlock+2
  4634     0D9F  30AF               	movlw	175
  4635     0DA0  00F6               	movwf	??_unlock+1
  4636     0DA1  30B6               	movlw	182
  4637     0DA2  00F5               	movwf	??_unlock
  4638     0DA3                     u3097:
  4639     0DA3  0BF5               	decfsz	??_unlock,f
  4640     0DA4  2DA3               	goto	u3097
  4641     0DA5  0BF6               	decfsz	??_unlock+1,f
  4642     0DA6  2DA3               	goto	u3097
  4643     0DA7  0BF7               	decfsz	??_unlock+2,f
  4644     0DA8  2DA3               	goto	u3097
  4645     0DA9  0000               	nop
  4646     0DAA                     l2909:
  4647                           
  4648                           ;./menu.h: 45:                 du_lieu(j);
  4649     0DAA  1283               	bcf	3,5	;RP0=0, select bank0
  4650     0DAB  1303               	bcf	3,6	;RP1=0, select bank0
  4651     0DAC  1005               	bcf	5,0	;volatile
  4652     0DAD                     l2911:
  4653                           
  4654                           ;./menu.h: 46:                 lenh(0xDC);
  4655     0DAD  1485               	bsf	5,1	;volatile
  4656                           
  4657                           ;./menu.h: 47:                 chuoi_kytu("giay");
  4658     0DAE  300D               	movlw	13
  4659     0DAF  00F7               	movwf	??_unlock+2
  4660     0DB0  30AF               	movlw	175
  4661     0DB1  00F6               	movwf	??_unlock+1
  4662     0DB2  30B6               	movlw	182
  4663     0DB3  00F5               	movwf	??_unlock
  4664     0DB4                     u3107:
  4665     0DB4  0BF5               	decfsz	??_unlock,f
  4666     0DB5  2DB4               	goto	u3107
  4667     0DB6  0BF6               	decfsz	??_unlock+1,f
  4668     0DB7  2DB4               	goto	u3107
  4669     0DB8  0BF7               	decfsz	??_unlock+2,f
  4670     0DB9  2DB4               	goto	u3107
  4671     0DBA  0000               	nop
  4672     0DBB                     l2913:
  4673                           
  4674                           ;./menu.h: 48:                 _delay((unsigned long)((1000)*(20000000/4000.0)));
  4675     0DBB  1283               	bcf	3,5	;RP0=0, select bank0
  4676     0DBC  1303               	bcf	3,6	;RP1=0, select bank0
  4677     0DBD  1085               	bcf	5,1	;volatile
  4678     0DBE                     l2915:
  4679                           
  4680                           ;./menu.h: 49:             }
  4681     0DBE  1505               	bsf	5,2	;volatile
  4682                           
  4683                           ;./menu.h: 50:             PORTAbits.RA5 = 0;
  4684     0DBF  300D               	movlw	13
  4685     0DC0  00F7               	movwf	??_unlock+2
  4686     0DC1  30AF               	movlw	175
  4687     0DC2  00F6               	movwf	??_unlock+1
  4688     0DC3  30B6               	movlw	182
  4689     0DC4  00F5               	movwf	??_unlock
  4690     0DC5                     u3117:
  4691     0DC5  0BF5               	decfsz	??_unlock,f
  4692     0DC6  2DC5               	goto	u3117
  4693     0DC7  0BF6               	decfsz	??_unlock+1,f
  4694     0DC8  2DC5               	goto	u3117
  4695     0DC9  0BF7               	decfsz	??_unlock+2,f
  4696     0DCA  2DC5               	goto	u3117
  4697     0DCB  0000               	nop
  4698     0DCC                     l2917:
  4699                           
  4700                           ;./menu.h: 51:             clear_lcd();
  4701     0DCC  1283               	bcf	3,5	;RP0=0, select bank0
  4702     0DCD  1303               	bcf	3,6	;RP1=0, select bank0
  4703     0DCE  1105               	bcf	5,2	;volatile
  4704     0DCF                     l2919:
  4705                           
  4706                           ;./menu.h: 52: }
  4707     0DCF  120A  118A  200C  120A  158A  	fcall	_clear_lcd
  4708     0DD4                     l2921:
  4709                           
  4710                           ;./menu.h: 53: unsigned char lenh_mocua_quetthe(){
  4711     0DD4  3082               	movlw	130
  4712     0DD5  120A  158A  22B4  120A  158A  	fcall	_lenh
  4713     0DDA                     l2923:
  4714                           
  4715                           ;./menu.h: 54:     int bienchay = 0, flag = 0, a = 0, tong =0, i, j, h=0x10 ;
  4716     0DDA  300A               	movlw	low (STR_2| (0+32768))
  4717     0DDB  00F2               	movwf	chuoi_kytu@a
  4718     0DDC  3089               	movlw	high (STR_2| (0+32768))
  4719     0DDD  00F3               	movwf	chuoi_kytu@a+1
  4720     0DDE  120A  158A  236D  120A  158A  	fcall	_chuoi_kytu
  4721     0DE3                     l2925:
  4722                           
  4723                           ;./menu.h: 55:     unsigned char address=0x00, x=0x00, y=0x00;
  4724     0DE3  1283               	bcf	3,5	;RP0=0, select bank0
  4725     0DE4  1303               	bcf	3,6	;RP1=0, select bank0
  4726     0DE5  1685               	bsf	5,5	;volatile
  4727     0DE6                     l2927:
  4728                           
  4729                           ;./menu.h: 56:     unsigned int TagType;
  4730     0DE6  30C0               	movlw	192
  4731     0DE7  120A  158A  22B4  120A  158A  	fcall	_lenh
  4732     0DEC                     l2929:
  4733                           
  4734                           ;./menu.h: 57:     unsigned char UID[10];
  4735     0DEC  3064               	movlw	low (STR_3| (0+32768))
  4736     0DED  00F2               	movwf	chuoi_kytu@a
  4737     0DEE  3088               	movlw	high (STR_3| (0+32768))
  4738     0DEF  00F3               	movwf	chuoi_kytu@a+1
  4739     0DF0  120A  158A  236D  120A  158A  	fcall	_chuoi_kytu
  4740     0DF5                     l2931:
  4741                           
  4742                           ;./menu.h: 58:     clear_lcd();
  4743     0DF5  3039               	movlw	57
  4744     0DF6  00F9               	movwf	unlock@i
  4745     0DF7  3000               	movlw	0
  4746     0DF8  00FA               	movwf	unlock@i+1
  4747     0DF9                     l2937:
  4748                           
  4749                           ;./menu.h: 59:     lenh(0xc0);
  4750     0DF9  0879               	movf	unlock@i,w
  4751     0DFA  00F8               	movwf	unlock@j
  4752     0DFB                     l2939:
  4753                           
  4754                           ;./menu.h: 60:     chuoi_kytu("Xin moi quet the");
  4755     0DFB  30DA               	movlw	218
  4756     0DFC  120A  158A  22B4  120A  158A  	fcall	_lenh
  4757     0E01                     l2941:
  4758                           
  4759                           ;./menu.h: 61: 
  4760     0E01  0878               	movf	unlock@j,w
  4761     0E02  120A  158A  22D4  120A  158A  	fcall	_du_lieu
  4762     0E07                     l2943:
  4763                           
  4764                           ;./menu.h: 62: 
  4765     0E07  30DC               	movlw	220
  4766     0E08  120A  158A  22B4  120A  158A  	fcall	_lenh
  4767     0E0D                     l2945:
  4768                           
  4769                           ;./menu.h: 63: 
  4770     0E0D  3049               	movlw	low (STR_4| (0+32768))
  4771     0E0E  00F2               	movwf	chuoi_kytu@a
  4772     0E0F  3089               	movlw	high (STR_4| (0+32768))
  4773     0E10  00F3               	movwf	chuoi_kytu@a+1
  4774     0E11  120A  158A  236D  120A  158A  	fcall	_chuoi_kytu
  4775     0E16                     l2947:
  4776                           
  4777                           ;./menu.h: 64: 
  4778     0E16  301A               	movlw	26
  4779     0E17  00F7               	movwf	??_unlock+2
  4780     0E18  305E               	movlw	94
  4781     0E19  00F6               	movwf	??_unlock+1
  4782     0E1A  306E               	movlw	110
  4783     0E1B  00F5               	movwf	??_unlock
  4784     0E1C                     u3127:
  4785     0E1C  0BF5               	decfsz	??_unlock,f
  4786     0E1D  2E1C               	goto	u3127
  4787     0E1E  0BF6               	decfsz	??_unlock+1,f
  4788     0E1F  2E1C               	goto	u3127
  4789     0E20  0BF7               	decfsz	??_unlock+2,f
  4790     0E21  2E1C               	goto	u3127
  4791     0E22  0000               	nop
  4792     0E23                     l2949:
  4793                           
  4794                           ;./menu.h: 65: 
  4795     0E23  30FF               	movlw	255
  4796     0E24  07F9               	addwf	unlock@i,f
  4797     0E25  1803               	skipnc
  4798     0E26  0AFA               	incf	unlock@i+1,f
  4799     0E27  30FF               	movlw	255
  4800     0E28  07FA               	addwf	unlock@i+1,f
  4801     0E29                     l2951:
  4802     0E29  087A               	movf	unlock@i+1,w
  4803     0E2A  3A80               	xorlw	128
  4804     0E2B  00FF               	movwf	btemp+1
  4805     0E2C  3080               	movlw	128
  4806     0E2D  027F               	subwf	btemp+1,w
  4807     0E2E  1D03               	skipz
  4808     0E2F  2E32               	goto	u2235
  4809     0E30  3030               	movlw	48
  4810     0E31  0279               	subwf	unlock@i,w
  4811     0E32                     u2235:
  4812     0E32  1803               	skipnc
  4813     0E33  2E35               	goto	u2231
  4814     0E34  2E36               	goto	u2230
  4815     0E35                     u2231:
  4816     0E35  2DF9               	goto	l2937
  4817     0E36                     u2230:
  4818     0E36                     l390:
  4819                           
  4820                           ;./menu.h: 66:     while(1){
  4821     0E36  1283               	bcf	3,5	;RP0=0, select bank0
  4822     0E37  1303               	bcf	3,6	;RP1=0, select bank0
  4823     0E38  1285               	bcf	5,5	;volatile
  4824     0E39                     l2953:
  4825                           
  4826                           ;./menu.h: 67:         if (MFRC522_isCard( &TagType ))
  4827     0E39  120A  118A  200C  120A  158A  	fcall	_clear_lcd
  4828     0E3E                     l391:
  4829     0E3E  0008               	return
  4830     0E3F                     __end_of_unlock:
  4831                           
  4832                           	psect	text14
  4833     03FD                     __ptext14:	
  4834 ;; *************** function _lenh_doipass *****************
  4835 ;; Defined at:
  4836 ;;		line 263 in file "./menu.h"
  4837 ;; Parameters:    Size  Location     Type
  4838 ;;		None
  4839 ;; Auto vars:     Size  Location     Type
  4840 ;;  nutnhan         1    8[BANK0 ] unsigned char 
  4841 ;;  a               6    0[BANK0 ] unsigned char [6]
  4842 ;;  i               2   10[BANK0 ] int 
  4843 ;;  flagmksai       2    6[BANK0 ] int 
  4844 ;;  j               1    9[BANK0 ] unsigned char 
  4845 ;; Return value:  Size  Location     Type
  4846 ;;                  1    wreg      unsigned char 
  4847 ;; Registers used:
  4848 ;;		wreg, fsr0l, fsr0h, status,2, status,0, btemp+1, pclath, cstack
  4849 ;; Tracked objects:
  4850 ;;		On entry : 0/0
  4851 ;;		On exit  : 0/0
  4852 ;;		Unchanged: 0/0
  4853 ;; Data sizes:     COMMON   BANK0   BANK1   BANK3   BANK2
  4854 ;;      Params:         0       0       0       0       0
  4855 ;;      Locals:         0      12       0       0       0
  4856 ;;      Temps:          3       0       0       0       0
  4857 ;;      Totals:         3      12       0       0       0
  4858 ;;Total ram usage:       15 bytes
  4859 ;; Hardware stack levels used: 1
  4860 ;; Hardware stack levels required when called: 3
  4861 ;; This function calls:
  4862 ;;		_chuoi_kytu
  4863 ;;		_clear_lcd
  4864 ;;		_du_lieu
  4865 ;;		_failunlock
  4866 ;;		_lenh
  4867 ;;		_readEEPROM
  4868 ;;		_switch_press_scan
  4869 ;;		_writeEEPROM
  4870 ;; This function is called by:
  4871 ;;		_taplenh_menu
  4872 ;; This function uses a non-reentrant model
  4873 ;;
  4874                           
  4875     03FD                     _lenh_doipass:	
  4876                           ;psect for function _lenh_doipass
  4877                           
  4878     03FD                     l3297:	
  4879                           ;incstack = 0
  4880                           ; Regs used in _lenh_doipass: [wreg-fsr0h+status,2+status,0+btemp+1+pclath+cstack]
  4881                           
  4882                           
  4883                           ;./menu.h: 264:     for(i=0;i<6;i++){
  4884     03FD  30F0               	movlw	240
  4885     03FE  1283               	bcf	3,5	;RP0=0, select bank0
  4886     03FF  1303               	bcf	3,6	;RP1=0, select bank0
  4887     0400  00A9               	movwf	lenh_doipass@j
  4888     0401                     l3299:
  4889                           
  4890                           ;./menu.h: 265:         char nutnhan = switch_press_scan();
  4891     0401  01A6               	clrf	lenh_doipass@flagmksai
  4892     0402  01A7               	clrf	lenh_doipass@flagmksai+1
  4893     0403                     l3301:
  4894                           
  4895                           ;./menu.h: 266:         PORTAbits.RA0 = 1;
  4896     0403  3020               	movlw	lenh_doipass@a& (0+255)
  4897     0404  0084               	movwf	4
  4898     0405  1683               	bsf	3,5	;RP0=1, select bank1
  4899     0406  1303               	bcf	3,6	;RP1=0, select bank1
  4900     0407  0820               	movf	lenh_doipass@F1304^(0+128),w
  4901     0408  1383               	bcf	3,7	;select IRP bank0
  4902     0409  0080               	movwf	0
  4903     040A  0A84               	incf	4,f
  4904     040B  0821               	movf	(lenh_doipass@F1304^(0+128)+1),w
  4905     040C  0080               	movwf	0
  4906     040D  0A84               	incf	4,f
  4907     040E  0822               	movf	(lenh_doipass@F1304^(0+128)+2),w
  4908     040F  0080               	movwf	0
  4909     0410  0A84               	incf	4,f
  4910     0411  0823               	movf	(lenh_doipass@F1304^(0+128)+3),w
  4911     0412  0080               	movwf	0
  4912     0413  0A84               	incf	4,f
  4913     0414  0824               	movf	(lenh_doipass@F1304^(0+128)+4),w
  4914     0415  0080               	movwf	0
  4915     0416  0A84               	incf	4,f
  4916     0417  0825               	movf	(lenh_doipass@F1304^(0+128)+5),w
  4917     0418  0080               	movwf	0
  4918     0419                     l3303:
  4919                           
  4920                           ;./menu.h: 267:         _delay((unsigned long)((100)*(20000000/4000.0)));
  4921     0419  120A  118A  200C  120A  118A  	fcall	_clear_lcd
  4922     041E                     l3305:
  4923                           
  4924                           ;./menu.h: 268:         PORTAbits.RA0 = 0;
  4925     041E  3084               	movlw	132
  4926     041F  120A  158A  22B4  120A  118A  	fcall	_lenh
  4927     0424                     l3307:
  4928                           
  4929                           ;./menu.h: 269:         du_lieu(nutnhan);
  4930     0424  3017               	movlw	low (STR_14| (0+32768))
  4931     0425  00F2               	movwf	chuoi_kytu@a
  4932     0426  3089               	movlw	high (STR_14| (0+32768))
  4933     0427  00F3               	movwf	chuoi_kytu@a+1
  4934     0428  120A  158A  236D  120A  118A  	fcall	_chuoi_kytu
  4935     042D                     l3309:
  4936                           
  4937                           ;./menu.h: 270:         if(nutnhan != a[i]){
  4938     042D  30C0               	movlw	192
  4939     042E  120A  158A  22B4  120A  118A  	fcall	_lenh
  4940     0433                     l3311:
  4941                           
  4942                           ;./menu.h: 271:             flagmksai = 1;
  4943     0433  30BD               	movlw	low (STR_15| (0+32768))
  4944     0434  00F2               	movwf	chuoi_kytu@a
  4945     0435  3088               	movlw	high (STR_15| (0+32768))
  4946     0436  00F3               	movwf	chuoi_kytu@a+1
  4947     0437  120A  158A  236D  120A  118A  	fcall	_chuoi_kytu
  4948     043C                     l3313:
  4949                           
  4950                           ;./menu.h: 272:         }
  4951     043C  3095               	movlw	149
  4952     043D  120A  158A  22B4  120A  118A  	fcall	_lenh
  4953     0442                     l3315:
  4954                           
  4955                           ;./menu.h: 275:     if(flagmksai == 0){
  4956     0442  1283               	bcf	3,5	;RP0=0, select bank0
  4957     0443  1303               	bcf	3,6	;RP1=0, select bank0
  4958     0444  01AA               	clrf	lenh_doipass@i
  4959     0445  01AB               	clrf	lenh_doipass@i+1
  4960     0446                     l3321:
  4961                           
  4962                           ;./menu.h: 276:         writeEEPROM(0xE0,0x00);
  4963     0446  1283               	bcf	3,5	;RP0=0, select bank0
  4964     0447  1303               	bcf	3,6	;RP1=0, select bank0
  4965     0448  0829               	movf	lenh_doipass@j,w
  4966     0449  3E01               	addlw	1
  4967     044A  00A9               	movwf	lenh_doipass@j
  4968     044B                     l3323:
  4969                           
  4970                           ;./menu.h: 277:         clear_lcd();
  4971     044B  082A               	movf	lenh_doipass@i,w
  4972     044C  3E20               	addlw	(low (lenh_doipass@a| 0))& (0+255)
  4973     044D  0084               	movwf	4
  4974     044E  0829               	movf	lenh_doipass@j,w
  4975     044F  120A  158A  2193  120A  118A  	fcall	_readEEPROM
  4976     0454  1383               	bcf	3,7	;select IRP bank0
  4977     0455  0080               	movwf	0
  4978     0456                     l3325:
  4979                           
  4980                           ;./menu.h: 278:         lenh(0x82);
  4981     0456  3001               	movlw	1
  4982     0457  1283               	bcf	3,5	;RP0=0, select bank0
  4983     0458  1303               	bcf	3,6	;RP1=0, select bank0
  4984     0459  07AA               	addwf	lenh_doipass@i,f
  4985     045A  1803               	skipnc
  4986     045B  0AAB               	incf	lenh_doipass@i+1,f
  4987     045C  3000               	movlw	0
  4988     045D  07AB               	addwf	lenh_doipass@i+1,f
  4989     045E                     l3327:
  4990     045E  082B               	movf	lenh_doipass@i+1,w
  4991     045F  3A80               	xorlw	128
  4992     0460  00FF               	movwf	btemp+1
  4993     0461  3080               	movlw	128
  4994     0462  027F               	subwf	btemp+1,w
  4995     0463  1D03               	skipz
  4996     0464  2C67               	goto	u2535
  4997     0465  3006               	movlw	6
  4998     0466  022A               	subwf	lenh_doipass@i,w
  4999     0467                     u2535:
  5000     0467  1C03               	skipc
  5001     0468  2C6A               	goto	u2531
  5002     0469  2C6B               	goto	u2530
  5003     046A                     u2531:
  5004     046A  2C46               	goto	l3321
  5005     046B                     u2530:
  5006     046B                     l3329:
  5007                           
  5008                           ;./menu.h: 280:         lenh(0xc0);
  5009     046B  1283               	bcf	3,5	;RP0=0, select bank0
  5010     046C  1303               	bcf	3,6	;RP1=0, select bank0
  5011     046D  01AA               	clrf	lenh_doipass@i
  5012     046E  01AB               	clrf	lenh_doipass@i+1
  5013     046F                     l3335:
  5014                           
  5015                           ;./menu.h: 281:         chuoi_kytu(" Gom 6 so");
  5016     046F  120A  158A  21C0  120A  118A  	fcall	_switch_press_scan
  5017     0474  1283               	bcf	3,5	;RP0=0, select bank0
  5018     0475  1303               	bcf	3,6	;RP1=0, select bank0
  5019     0476  00A8               	movwf	lenh_doipass@nutnhan
  5020     0477                     l3337:
  5021                           
  5022                           ;./menu.h: 282:         lenh(0x95);
  5023     0477  1405               	bsf	5,0	;volatile
  5024     0478                     l3339:
  5025                           
  5026                           ;./menu.h: 283:         j = 0xF0;
  5027     0478  3003               	movlw	3
  5028     0479  00FA               	movwf	??_lenh_doipass+2
  5029     047A  308A               	movlw	138
  5030     047B  00F9               	movwf	??_lenh_doipass+1
  5031     047C  3055               	movlw	85
  5032     047D  00F8               	movwf	??_lenh_doipass
  5033     047E                     u3137:
  5034     047E  0BF8               	decfsz	??_lenh_doipass,f
  5035     047F  2C7E               	goto	u3137
  5036     0480  0BF9               	decfsz	??_lenh_doipass+1,f
  5037     0481  2C7E               	goto	u3137
  5038     0482  0BFA               	decfsz	??_lenh_doipass+2,f
  5039     0483  2C7E               	goto	u3137
  5040     0484  2C85               	nop2
  5041     0485                     l3341:
  5042                           
  5043                           ;./menu.h: 284:         for(i=0;i<6;i++){
  5044     0485  1283               	bcf	3,5	;RP0=0, select bank0
  5045     0486  1303               	bcf	3,6	;RP1=0, select bank0
  5046     0487  1005               	bcf	5,0	;volatile
  5047     0488                     l3343:
  5048                           
  5049                           ;./menu.h: 285:             j = j + 0x01;
  5050     0488  0828               	movf	lenh_doipass@nutnhan,w
  5051     0489  120A  158A  22D4  120A  118A  	fcall	_du_lieu
  5052     048E                     l3345:
  5053                           
  5054                           ;./menu.h: 286:             mk[i] = switch_press_scan();
  5055     048E  1283               	bcf	3,5	;RP0=0, select bank0
  5056     048F  1303               	bcf	3,6	;RP1=0, select bank0
  5057     0490  082A               	movf	lenh_doipass@i,w
  5058     0491  3E20               	addlw	(low (lenh_doipass@a| 0))& (0+255)
  5059     0492  0084               	movwf	4
  5060     0493  1383               	bcf	3,7	;select IRP bank0
  5061     0494  0800               	movf	0,w
  5062     0495  0628               	xorwf	lenh_doipass@nutnhan,w
  5063     0496  1903               	skipnz
  5064     0497  2C99               	goto	u2541
  5065     0498  2C9A               	goto	u2540
  5066     0499                     u2541:
  5067     0499  2C9E               	goto	l460
  5068     049A                     u2540:
  5069     049A                     l3347:
  5070                           
  5071                           ;./menu.h: 287:             _delay((unsigned long)((100)*(20000000/4000000.0)));
  5072     049A  3001               	movlw	1
  5073     049B  00A6               	movwf	lenh_doipass@flagmksai
  5074     049C  3000               	movlw	0
  5075     049D  00A7               	movwf	lenh_doipass@flagmksai+1
  5076     049E                     l460:	
  5077                           ;./menu.h: 288:             writeEEPROM(j,mk[i]);
  5078                           
  5079                           
  5080                           ;./menu.h: 289:             du_lieu(readEEPROM(j));
  5081     049E  3001               	movlw	1
  5082     049F  07AA               	addwf	lenh_doipass@i,f
  5083     04A0  1803               	skipnc
  5084     04A1  0AAB               	incf	lenh_doipass@i+1,f
  5085     04A2  3000               	movlw	0
  5086     04A3  07AB               	addwf	lenh_doipass@i+1,f
  5087     04A4                     l3349:
  5088     04A4  082B               	movf	lenh_doipass@i+1,w
  5089     04A5  3A80               	xorlw	128
  5090     04A6  00FF               	movwf	btemp+1
  5091     04A7  3080               	movlw	128
  5092     04A8  027F               	subwf	btemp+1,w
  5093     04A9  1D03               	skipz
  5094     04AA  2CAD               	goto	u2555
  5095     04AB  3006               	movlw	6
  5096     04AC  022A               	subwf	lenh_doipass@i,w
  5097     04AD                     u2555:
  5098     04AD  1C03               	skipc
  5099     04AE  2CB0               	goto	u2551
  5100     04AF  2CB1               	goto	u2550
  5101     04B0                     u2551:
  5102     04B0  2C6F               	goto	l3335
  5103     04B1                     u2550:
  5104     04B1                     l3351:
  5105                           
  5106                           ;./menu.h: 290:         }
  5107     04B1  301A               	movlw	26
  5108     04B2  00FA               	movwf	??_lenh_doipass+2
  5109     04B3  305E               	movlw	94
  5110     04B4  00F9               	movwf	??_lenh_doipass+1
  5111     04B5  306E               	movlw	110
  5112     04B6  00F8               	movwf	??_lenh_doipass
  5113     04B7                     u3147:
  5114     04B7  0BF8               	decfsz	??_lenh_doipass,f
  5115     04B8  2CB7               	goto	u3147
  5116     04B9  0BF9               	decfsz	??_lenh_doipass+1,f
  5117     04BA  2CB7               	goto	u3147
  5118     04BB  0BFA               	decfsz	??_lenh_doipass+2,f
  5119     04BC  2CB7               	goto	u3147
  5120     04BD  0000               	nop
  5121     04BE                     l3353:
  5122                           
  5123                           ;./menu.h: 291: 
  5124     04BE  1283               	bcf	3,5	;RP0=0, select bank0
  5125     04BF  1303               	bcf	3,6	;RP1=0, select bank0
  5126     04C0  0826               	movf	lenh_doipass@flagmksai,w
  5127     04C1  0427               	iorwf	lenh_doipass@flagmksai+1,w
  5128     04C2  1D03               	btfss	3,2
  5129     04C3  2CC5               	goto	u2561
  5130     04C4  2CC6               	goto	u2560
  5131     04C5                     u2561:
  5132     04C5  2DA3               	goto	l3415
  5133     04C6                     u2560:
  5134     04C6                     l3355:
  5135                           
  5136                           ;./menu.h: 292: 
  5137     04C6  01F0               	clrf	writeEEPROM@DATA
  5138     04C7  30E0               	movlw	224
  5139     04C8  120A  158A  2266  120A  118A  	fcall	_writeEEPROM
  5140                           
  5141                           ;./menu.h: 293: 
  5142     04CD  120A  118A  200C  120A  118A  	fcall	_clear_lcd
  5143                           
  5144                           ;./menu.h: 294: 
  5145     04D2  3082               	movlw	130
  5146     04D3  120A  158A  22B4  120A  118A  	fcall	_lenh
  5147     04D8                     l3357:
  5148                           
  5149                           ;./menu.h: 295: 
  5150     04D8  30ED               	movlw	low (STR_16| (0+32768))
  5151     04D9  00F2               	movwf	chuoi_kytu@a
  5152     04DA  3088               	movlw	high (STR_16| (0+32768))
  5153     04DB  00F3               	movwf	chuoi_kytu@a+1
  5154     04DC  120A  158A  236D  120A  118A  	fcall	_chuoi_kytu
  5155     04E1                     l3359:
  5156                           
  5157                           ;./menu.h: 296: 
  5158     04E1  30C0               	movlw	192
  5159     04E2  120A  158A  22B4  120A  118A  	fcall	_lenh
  5160                           
  5161                           ;./menu.h: 297: 
  5162     04E7  3024               	movlw	low (STR_17| (0+32768))
  5163     04E8  00F2               	movwf	chuoi_kytu@a
  5164     04E9  3089               	movlw	high (STR_17| (0+32768))
  5165     04EA  00F3               	movwf	chuoi_kytu@a+1
  5166     04EB  120A  158A  236D  120A  118A  	fcall	_chuoi_kytu
  5167     04F0                     l3361:
  5168                           
  5169                           ;./menu.h: 298:         _delay((unsigned long)((1000)*(20000000/4000.0)));
  5170     04F0  3095               	movlw	149
  5171     04F1  120A  158A  22B4  120A  118A  	fcall	_lenh
  5172     04F6                     l3363:
  5173                           
  5174                           ;./menu.h: 299:         clear_lcd();
  5175     04F6  30F0               	movlw	240
  5176     04F7  1283               	bcf	3,5	;RP0=0, select bank0
  5177     04F8  1303               	bcf	3,6	;RP1=0, select bank0
  5178     04F9  00A9               	movwf	lenh_doipass@j
  5179     04FA                     l3365:
  5180                           
  5181                           ;./menu.h: 300:         lenh(0x80);
  5182     04FA  01AA               	clrf	lenh_doipass@i
  5183     04FB  01AB               	clrf	lenh_doipass@i+1
  5184     04FC                     l3371:
  5185                           
  5186                           ;./menu.h: 301:         du_lieu(" ");
  5187     04FC  1283               	bcf	3,5	;RP0=0, select bank0
  5188     04FD  1303               	bcf	3,6	;RP1=0, select bank0
  5189     04FE  0829               	movf	lenh_doipass@j,w
  5190     04FF  3E01               	addlw	1
  5191     0500  00A9               	movwf	lenh_doipass@j
  5192     0501                     l3373:
  5193                           
  5194                           ;./menu.h: 302:         lenh(0xc0);
  5195     0501  082A               	movf	lenh_doipass@i,w
  5196     0502  3E69               	addlw	(low (_mk| 0))& (0+255)
  5197     0503  0084               	movwf	4
  5198     0504  120A  158A  21C0  120A  118A  	fcall	_switch_press_scan
  5199     0509  1383               	bcf	3,7	;select IRP bank0
  5200     050A  0080               	movwf	0
  5201     050B                     l3375:
  5202                           
  5203                           ;./menu.h: 303:         chuoi_kytu("Mat khau da duoc doi");
  5204     050B  30A6               	movlw	166
  5205     050C  00F8               	movwf	??_lenh_doipass
  5206     050D                     u3157:
  5207     050D  0BF8               	decfsz	??_lenh_doipass,f
  5208     050E  2D0D               	goto	u3157
  5209     050F  0000               	nop
  5210     0510                     l3377:
  5211                           
  5212                           ;./menu.h: 304:         PORTAbits.RA0 = 1;
  5213     0510  1283               	bcf	3,5	;RP0=0, select bank0
  5214     0511  1303               	bcf	3,6	;RP1=0, select bank0
  5215     0512  082A               	movf	lenh_doipass@i,w
  5216     0513  3E69               	addlw	(low (_mk| 0))& (0+255)
  5217     0514  0084               	movwf	4
  5218     0515  1383               	bcf	3,7	;select IRP bank0
  5219     0516  0800               	movf	0,w
  5220     0517  00F0               	movwf	writeEEPROM@DATA
  5221     0518  0829               	movf	lenh_doipass@j,w
  5222     0519  120A  158A  2266  120A  118A  	fcall	_writeEEPROM
  5223     051E                     l3379:
  5224                           
  5225                           ;./menu.h: 305:         _delay((unsigned long)((500)*(20000000/4000.0)));
  5226     051E  1283               	bcf	3,5	;RP0=0, select bank0
  5227     051F  1303               	bcf	3,6	;RP1=0, select bank0
  5228     0520  0829               	movf	lenh_doipass@j,w
  5229     0521  120A  158A  2193  120A  118A  	fcall	_readEEPROM
  5230     0526  120A  158A  22D4  120A  118A  	fcall	_du_lieu
  5231     052B                     l3381:
  5232                           
  5233                           ;./menu.h: 306:         PORTAbits.RA1 = 1;
  5234     052B  3001               	movlw	1
  5235     052C  1283               	bcf	3,5	;RP0=0, select bank0
  5236     052D  1303               	bcf	3,6	;RP1=0, select bank0
  5237     052E  07AA               	addwf	lenh_doipass@i,f
  5238     052F  1803               	skipnc
  5239     0530  0AAB               	incf	lenh_doipass@i+1,f
  5240     0531  3000               	movlw	0
  5241     0532  07AB               	addwf	lenh_doipass@i+1,f
  5242     0533                     l3383:
  5243     0533  082B               	movf	lenh_doipass@i+1,w
  5244     0534  3A80               	xorlw	128
  5245     0535  00FF               	movwf	btemp+1
  5246     0536  3080               	movlw	128
  5247     0537  027F               	subwf	btemp+1,w
  5248     0538  1D03               	skipz
  5249     0539  2D3C               	goto	u2575
  5250     053A  3006               	movlw	6
  5251     053B  022A               	subwf	lenh_doipass@i,w
  5252     053C                     u2575:
  5253     053C  1C03               	skipc
  5254     053D  2D3F               	goto	u2571
  5255     053E  2D40               	goto	u2570
  5256     053F                     u2571:
  5257     053F  2CFC               	goto	l3371
  5258     0540                     u2570:
  5259     0540                     l3385:
  5260                           
  5261                           ;./menu.h: 314:     }else if(flagmksai == 1){
  5262     0540  301A               	movlw	26
  5263     0541  00FA               	movwf	??_lenh_doipass+2
  5264     0542  305E               	movlw	94
  5265     0543  00F9               	movwf	??_lenh_doipass+1
  5266     0544  306E               	movlw	110
  5267     0545  00F8               	movwf	??_lenh_doipass
  5268     0546                     u3167:
  5269     0546  0BF8               	decfsz	??_lenh_doipass,f
  5270     0547  2D46               	goto	u3167
  5271     0548  0BF9               	decfsz	??_lenh_doipass+1,f
  5272     0549  2D46               	goto	u3167
  5273     054A  0BFA               	decfsz	??_lenh_doipass+2,f
  5274     054B  2D46               	goto	u3167
  5275     054C  0000               	nop
  5276     054D                     l3387:
  5277                           
  5278                           ;./menu.h: 315:             failunlock();
  5279     054D  120A  118A  200C  120A  118A  	fcall	_clear_lcd
  5280     0552                     l3389:
  5281                           
  5282                           ;./menu.h: 316:         }
  5283     0552  3080               	movlw	128
  5284     0553  120A  158A  22B4  120A  118A  	fcall	_lenh
  5285     0558                     l3391:
  5286                           
  5287                           ;./menu.h: 317:     clear_lcd();
  5288     0558  304E               	movlw	(low (STR_18| (0+32768)))& (0+255)
  5289     0559  120A  158A  22D4  120A  118A  	fcall	_du_lieu
  5290     055E                     l3393:
  5291                           
  5292                           ;./menu.h: 318: }
  5293     055E  30C0               	movlw	192
  5294     055F  120A  158A  22B4  120A  118A  	fcall	_lenh
  5295     0564                     l3395:
  5296                           
  5297                           ;./menu.h: 319: 
  5298     0564  3000               	movlw	low (STR_19| (0+32768))
  5299     0565  00F2               	movwf	chuoi_kytu@a
  5300     0566  3088               	movlw	high (STR_19| (0+32768))
  5301     0567  00F3               	movwf	chuoi_kytu@a+1
  5302     0568  120A  158A  236D  120A  118A  	fcall	_chuoi_kytu
  5303     056D                     l3397:
  5304                           
  5305                           ;./menu.h: 320: void menu(void){
  5306     056D  1283               	bcf	3,5	;RP0=0, select bank0
  5307     056E  1303               	bcf	3,6	;RP1=0, select bank0
  5308     056F  1405               	bsf	5,0	;volatile
  5309     0570                     l3399:
  5310                           
  5311                           ;./menu.h: 321:     clear_lcd();
  5312     0570  300D               	movlw	13
  5313     0571  00FA               	movwf	??_lenh_doipass+2
  5314     0572  30AF               	movlw	175
  5315     0573  00F9               	movwf	??_lenh_doipass+1
  5316     0574  30B6               	movlw	182
  5317     0575  00F8               	movwf	??_lenh_doipass
  5318     0576                     u3177:
  5319     0576  0BF8               	decfsz	??_lenh_doipass,f
  5320     0577  2D76               	goto	u3177
  5321     0578  0BF9               	decfsz	??_lenh_doipass+1,f
  5322     0579  2D76               	goto	u3177
  5323     057A  0BFA               	decfsz	??_lenh_doipass+2,f
  5324     057B  2D76               	goto	u3177
  5325     057C  0000               	nop
  5326     057D                     l3401:
  5327                           
  5328                           ;./menu.h: 322:     lenh(0x80);
  5329     057D  1283               	bcf	3,5	;RP0=0, select bank0
  5330     057E  1303               	bcf	3,6	;RP1=0, select bank0
  5331     057F  1485               	bsf	5,1	;volatile
  5332     0580                     l3403:
  5333                           
  5334                           ;./menu.h: 323:     chuoi_kytu("Nhanphim A#MOCUA");
  5335     0580  300D               	movlw	13
  5336     0581  00FA               	movwf	??_lenh_doipass+2
  5337     0582  30AF               	movlw	175
  5338     0583  00F9               	movwf	??_lenh_doipass+1
  5339     0584  30B6               	movlw	182
  5340     0585  00F8               	movwf	??_lenh_doipass
  5341     0586                     u3187:
  5342     0586  0BF8               	decfsz	??_lenh_doipass,f
  5343     0587  2D86               	goto	u3187
  5344     0588  0BF9               	decfsz	??_lenh_doipass+1,f
  5345     0589  2D86               	goto	u3187
  5346     058A  0BFA               	decfsz	??_lenh_doipass+2,f
  5347     058B  2D86               	goto	u3187
  5348     058C  0000               	nop
  5349     058D                     l3405:
  5350                           
  5351                           ;./menu.h: 324:     lenh(0xc0);
  5352     058D  1283               	bcf	3,5	;RP0=0, select bank0
  5353     058E  1303               	bcf	3,6	;RP1=0, select bank0
  5354     058F  1505               	bsf	5,2	;volatile
  5355     0590                     l3407:
  5356                           
  5357                           ;./menu.h: 325:     chuoi_kytu("Nhanphim B#THEMTHE");
  5358     0590  300D               	movlw	13
  5359     0591  00FA               	movwf	??_lenh_doipass+2
  5360     0592  30AF               	movlw	175
  5361     0593  00F9               	movwf	??_lenh_doipass+1
  5362     0594  30B6               	movlw	182
  5363     0595  00F8               	movwf	??_lenh_doipass
  5364     0596                     u3197:
  5365     0596  0BF8               	decfsz	??_lenh_doipass,f
  5366     0597  2D96               	goto	u3197
  5367     0598  0BF9               	decfsz	??_lenh_doipass+1,f
  5368     0599  2D96               	goto	u3197
  5369     059A  0BFA               	decfsz	??_lenh_doipass+2,f
  5370     059B  2D96               	goto	u3197
  5371     059C  0000               	nop
  5372     059D                     l3409:
  5373                           
  5374                           ;./menu.h: 326:     lenh(0x94);
  5375     059D  1283               	bcf	3,5	;RP0=0, select bank0
  5376     059E  1303               	bcf	3,6	;RP1=0, select bank0
  5377     059F  1005               	bcf	5,0	;volatile
  5378     05A0                     l3411:
  5379                           
  5380                           ;./menu.h: 327:     chuoi_kytu("Nhanphim C#XOATHE");
  5381     05A0  1085               	bcf	5,1	;volatile
  5382     05A1                     l3413:
  5383                           
  5384                           ;./menu.h: 328:     lenh(0xD4);
  5385     05A1  1105               	bcf	5,2	;volatile
  5386                           
  5387                           ;./menu.h: 330: }
  5388     05A2  2DAE               	goto	l3419
  5389     05A3                     l3415:
  5390     05A3  0326               	decf	lenh_doipass@flagmksai,w
  5391     05A4  0427               	iorwf	lenh_doipass@flagmksai+1,w
  5392     05A5  1D03               	btfss	3,2
  5393     05A6  2DA8               	goto	u2581
  5394     05A7  2DA9               	goto	u2580
  5395     05A8                     u2581:
  5396     05A8  2DAE               	goto	l3419
  5397     05A9                     u2580:
  5398     05A9                     l3417:
  5399                           
  5400                           ;./menu.h: 331: unsigned char taplenh_menu(char a){
  5401     05A9  120A  158A  2454  120A  118A  	fcall	_failunlock
  5402     05AE                     l3419:
  5403                           
  5404                           ;./menu.h: 333:         PORTAbits.RA1 = 1;
  5405     05AE  120A  118A  200C  120A  118A  	fcall	_clear_lcd
  5406     05B3                     l466:
  5407     05B3  0008               	return
  5408     05B4                     __end_of_lenh_doipass:
  5409                           
  5410                           	psect	text15
  5411     0A66                     __ptext15:	
  5412 ;; *************** function _writeEEPROM *****************
  5413 ;; Defined at:
  5414 ;;		line 44 in file "mainproject.c"
  5415 ;; Parameters:    Size  Location     Type
  5416 ;;  address         1    wreg     unsigned char 
  5417 ;;  DATA            1    0[COMMON] unsigned char 
  5418 ;; Auto vars:     Size  Location     Type
  5419 ;;  address         1    1[COMMON] unsigned char 
  5420 ;; Return value:  Size  Location     Type
  5421 ;;                  1    wreg      void 
  5422 ;; Registers used:
  5423 ;;		wreg
  5424 ;; Tracked objects:
  5425 ;;		On entry : 0/0
  5426 ;;		On exit  : 0/0
  5427 ;;		Unchanged: 0/0
  5428 ;; Data sizes:     COMMON   BANK0   BANK1   BANK3   BANK2
  5429 ;;      Params:         1       0       0       0       0
  5430 ;;      Locals:         1       0       0       0       0
  5431 ;;      Temps:          0       0       0       0       0
  5432 ;;      Totals:         2       0       0       0       0
  5433 ;;Total ram usage:        2 bytes
  5434 ;; Hardware stack levels used: 1
  5435 ;; This function calls:
  5436 ;;		Nothing
  5437 ;; This function is called by:
  5438 ;;		_lenh_mocua_matkhau
  5439 ;;		_lenh_themthe
  5440 ;;		_lenh_doipass
  5441 ;; This function uses a non-reentrant model
  5442 ;;
  5443                           
  5444     0A66                     _writeEEPROM:	
  5445                           ;psect for function _writeEEPROM
  5446                           
  5447                           
  5448                           ;incstack = 0
  5449                           ; Regs used in _writeEEPROM: [wreg]
  5450                           ;writeEEPROM@address stored from wreg
  5451     0A66  00F1               	movwf	writeEEPROM@address
  5452     0A67                     l2955:
  5453                           
  5454                           ;mainproject.c: 45:     EEADR = address;
  5455     0A67  0871               	movf	writeEEPROM@address,w
  5456     0A68  1283               	bcf	3,5	;RP0=0, select bank2
  5457     0A69  1703               	bsf	3,6	;RP1=1, select bank2
  5458     0A6A  008D               	movwf	13	;volatile
  5459                           
  5460                           ;mainproject.c: 46:     EEDATA = DATA;
  5461     0A6B  0870               	movf	writeEEPROM@DATA,w
  5462     0A6C  008C               	movwf	12	;volatile
  5463     0A6D                     l2957:
  5464                           
  5465                           ;mainproject.c: 47:     EECON1bits.EEPGD = 0;
  5466     0A6D  1683               	bsf	3,5	;RP0=1, select bank3
  5467     0A6E  1703               	bsf	3,6	;RP1=1, select bank3
  5468     0A6F  138C               	bcf	12,7	;volsfr
  5469     0A70                     l2959:
  5470                           
  5471                           ;mainproject.c: 48:     EECON1bits.WREN = 1;
  5472     0A70  150C               	bsf	12,2	;volsfr
  5473     0A71                     l2961:
  5474                           
  5475                           ;mainproject.c: 49:     INTCONbits.GIE = 0;
  5476     0A71  138B               	bcf	11,7	;volatile
  5477                           
  5478                           ;mainproject.c: 50:     EECON2 = 0x55;
  5479     0A72  3055               	movlw	85
  5480     0A73  008D               	movwf	13	;volsfr
  5481                           
  5482                           ;mainproject.c: 51:     EECON2 = 0xAA;
  5483     0A74  30AA               	movlw	170
  5484     0A75  008D               	movwf	13	;volsfr
  5485     0A76                     l2963:
  5486                           
  5487                           ;mainproject.c: 52:     EECON1bits.WR = 1;
  5488     0A76  148C               	bsf	12,1	;volsfr
  5489     0A77                     l2965:
  5490                           
  5491                           ;mainproject.c: 53:     EECON1bits.WREN = 0;
  5492     0A77  110C               	bcf	12,2	;volsfr
  5493     0A78                     l491:	
  5494                           ;mainproject.c: 54:     while(PIR2bits.EEIF == 0);
  5495                           
  5496     0A78  1283               	bcf	3,5	;RP0=0, select bank0
  5497     0A79  1303               	bcf	3,6	;RP1=0, select bank0
  5498     0A7A  1E0D               	btfss	13,4	;volatile
  5499     0A7B  2A7D               	goto	u2241
  5500     0A7C  2A7E               	goto	u2240
  5501     0A7D                     u2241:
  5502     0A7D  2A78               	goto	l491
  5503     0A7E                     u2240:
  5504     0A7E                     l493:
  5505                           
  5506                           ;mainproject.c: 55:     PIR2bits.EEIF = 0;
  5507     0A7E  120D               	bcf	13,4	;volatile
  5508     0A7F                     l494:
  5509     0A7F  0008               	return
  5510     0A80                     __end_of_writeEEPROM:
  5511                           
  5512                           	psect	text16
  5513     09C0                     __ptext16:	
  5514 ;; *************** function _switch_press_scan *****************
  5515 ;; Defined at:
  5516 ;;		line 35 in file "./key_pad.h"
  5517 ;; Parameters:    Size  Location     Type
  5518 ;;		None
  5519 ;; Auto vars:     Size  Location     Type
  5520 ;;  key             1    2[COMMON] unsigned char 
  5521 ;; Return value:  Size  Location     Type
  5522 ;;                  1    wreg      unsigned char 
  5523 ;; Registers used:
  5524 ;;		wreg, status,2, status,0, pclath, cstack
  5525 ;; Tracked objects:
  5526 ;;		On entry : 0/0
  5527 ;;		On exit  : 0/0
  5528 ;;		Unchanged: 0/0
  5529 ;; Data sizes:     COMMON   BANK0   BANK1   BANK3   BANK2
  5530 ;;      Params:         0       0       0       0       0
  5531 ;;      Locals:         1       0       0       0       0
  5532 ;;      Temps:          0       0       0       0       0
  5533 ;;      Totals:         1       0       0       0       0
  5534 ;;Total ram usage:        1 bytes
  5535 ;; Hardware stack levels used: 1
  5536 ;; Hardware stack levels required when called: 1
  5537 ;; This function calls:
  5538 ;;		_keypad_scanner
  5539 ;; This function is called by:
  5540 ;;		_lenh_mocua_matkhau
  5541 ;;		_lenh_themthe
  5542 ;;		_lenh_doipass
  5543 ;;		_taplenh_menu
  5544 ;;		_main
  5545 ;; This function uses a non-reentrant model
  5546 ;;
  5547                           
  5548     09C0                     _switch_press_scan:	
  5549                           ;psect for function _switch_press_scan
  5550                           
  5551     09C0                     l2843:	
  5552                           ;incstack = 0
  5553                           ; Regs used in _switch_press_scan: [wreg+status,2+status,0+pclath+cstack]
  5554                           
  5555                           
  5556                           ;./key_pad.h: 37:             char key = 'n';
  5557     09C0  306E               	movlw	110
  5558     09C1  00F2               	movwf	switch_press_scan@key
  5559                           
  5560                           ;./key_pad.h: 38:             while(key=='n')
  5561     09C2  29C9               	goto	l2847
  5562     09C3                     l2845:
  5563                           
  5564                           ;./key_pad.h: 39:             key = keypad_scanner();
  5565     09C3  120A  118A  2141  120A  158A  	fcall	_keypad_scanner
  5566     09C8  00F2               	movwf	switch_press_scan@key
  5567     09C9                     l2847:
  5568                           
  5569                           ;./key_pad.h: 38:             while(key=='n')
  5570     09C9  306E               	movlw	110
  5571     09CA  0672               	xorwf	switch_press_scan@key,w
  5572     09CB  1903               	btfsc	3,2
  5573     09CC  29CE               	goto	u2201
  5574     09CD  29CF               	goto	u2200
  5575     09CE                     u2201:
  5576     09CE  29C3               	goto	l2845
  5577     09CF                     u2200:
  5578     09CF                     l2849:
  5579                           
  5580                           ;./key_pad.h: 40:             return key;
  5581     09CF  0872               	movf	switch_press_scan@key,w
  5582     09D0                     l93:
  5583     09D0  0008               	return
  5584     09D1                     __end_of_switch_press_scan:
  5585                           
  5586                           	psect	text17
  5587     0141                     __ptext17:	
  5588 ;; *************** function _keypad_scanner *****************
  5589 ;; Defined at:
  5590 ;;		line 42 in file "./key_pad.h"
  5591 ;; Parameters:    Size  Location     Type
  5592 ;;		None
  5593 ;; Auto vars:     Size  Location     Type
  5594 ;;		None
  5595 ;; Return value:  Size  Location     Type
  5596 ;;                  1    wreg      unsigned char 
  5597 ;; Registers used:
  5598 ;;		wreg
  5599 ;; Tracked objects:
  5600 ;;		On entry : 0/0
  5601 ;;		On exit  : 0/0
  5602 ;;		Unchanged: 0/0
  5603 ;; Data sizes:     COMMON   BANK0   BANK1   BANK3   BANK2
  5604 ;;      Params:         0       0       0       0       0
  5605 ;;      Locals:         0       0       0       0       0
  5606 ;;      Temps:          2       0       0       0       0
  5607 ;;      Totals:         2       0       0       0       0
  5608 ;;Total ram usage:        2 bytes
  5609 ;; Hardware stack levels used: 1
  5610 ;; This function calls:
  5611 ;;		Nothing
  5612 ;; This function is called by:
  5613 ;;		_switch_press_scan
  5614 ;; This function uses a non-reentrant model
  5615 ;;
  5616                           
  5617     0141                     _keypad_scanner:	
  5618                           ;psect for function _keypad_scanner
  5619                           
  5620     0141                     l2647:	
  5621                           ;incstack = 0
  5622                           ; Regs used in _keypad_scanner: [wreg]
  5623                           
  5624                           
  5625                           ;./key_pad.h: 44:             RB0 = 0; RB1 = 1; RB2 = 1; RB3 = 1;
  5626     0141  1283               	bcf	3,5	;RP0=0, select bank0
  5627     0142  1303               	bcf	3,6	;RP1=0, select bank0
  5628     0143  1006               	bcf	6,0	;volatile
  5629     0144  1486               	bsf	6,1	;volatile
  5630     0145  1506               	bsf	6,2	;volatile
  5631     0146  1586               	bsf	6,3	;volatile
  5632                           
  5633                           ;./key_pad.h: 45:             if (RB4 == 0) { _delay((unsigned long)((1)*(20000000/4000.
      +                          0))); while (RB4==0); return 'D'; }
  5634     0147  1A06               	btfsc	6,4	;volatile
  5635     0148  294A               	goto	u1811
  5636     0149  294B               	goto	u1810
  5637     014A                     u1811:
  5638     014A  295B               	goto	l96
  5639     014B                     u1810:
  5640     014B                     l2649:
  5641     014B  3007               	movlw	7
  5642     014C  00F1               	movwf	??_keypad_scanner+1
  5643     014D  307D               	movlw	125
  5644     014E  00F0               	movwf	??_keypad_scanner
  5645     014F                     u3207:
  5646     014F  0BF0               	decfsz	??_keypad_scanner,f
  5647     0150  294F               	goto	u3207
  5648     0151  0BF1               	decfsz	??_keypad_scanner+1,f
  5649     0152  294F               	goto	u3207
  5650     0153                     l97:
  5651     0153  1283               	bcf	3,5	;RP0=0, select bank0
  5652     0154  1303               	bcf	3,6	;RP1=0, select bank0
  5653     0155  1E06               	btfss	6,4	;volatile
  5654     0156  2958               	goto	u1821
  5655     0157  2959               	goto	u1820
  5656     0158                     u1821:
  5657     0158  2953               	goto	l97
  5658     0159                     u1820:
  5659     0159                     l2651:
  5660     0159  3044               	movlw	68
  5661     015A  2A96               	goto	l100
  5662     015B                     l96:	
  5663                           ;./key_pad.h: 46:             else if (RB5 == 0) { _delay((unsigned long)((1)*(20000000/
      +                          4000.0))); while (RB5==0); return 'C'; }
  5664                           
  5665     015B  1A86               	btfsc	6,5	;volatile
  5666     015C  295E               	goto	u1831
  5667     015D  295F               	goto	u1830
  5668     015E                     u1831:
  5669     015E  296F               	goto	l102
  5670     015F                     u1830:
  5671     015F                     l2657:
  5672     015F  3007               	movlw	7
  5673     0160  00F1               	movwf	??_keypad_scanner+1
  5674     0161  307D               	movlw	125
  5675     0162  00F0               	movwf	??_keypad_scanner
  5676     0163                     u3217:
  5677     0163  0BF0               	decfsz	??_keypad_scanner,f
  5678     0164  2963               	goto	u3217
  5679     0165  0BF1               	decfsz	??_keypad_scanner+1,f
  5680     0166  2963               	goto	u3217
  5681     0167                     l103:
  5682     0167  1283               	bcf	3,5	;RP0=0, select bank0
  5683     0168  1303               	bcf	3,6	;RP1=0, select bank0
  5684     0169  1E86               	btfss	6,5	;volatile
  5685     016A  296C               	goto	u1841
  5686     016B  296D               	goto	u1840
  5687     016C                     u1841:
  5688     016C  2967               	goto	l103
  5689     016D                     u1840:
  5690     016D                     l2659:
  5691     016D  3043               	movlw	67
  5692     016E  2A96               	goto	l100
  5693     016F                     l102:	
  5694                           ;./key_pad.h: 47:             else if (RB6 == 0) { _delay((unsigned long)((1)*(20000000/
      +                          4000.0))); while (RB6==0); return 'B'; }
  5695                           
  5696     016F  1B06               	btfsc	6,6	;volatile
  5697     0170  2972               	goto	u1851
  5698     0171  2973               	goto	u1850
  5699     0172                     u1851:
  5700     0172  2983               	goto	l107
  5701     0173                     u1850:
  5702     0173                     l2665:
  5703     0173  3007               	movlw	7
  5704     0174  00F1               	movwf	??_keypad_scanner+1
  5705     0175  307D               	movlw	125
  5706     0176  00F0               	movwf	??_keypad_scanner
  5707     0177                     u3227:
  5708     0177  0BF0               	decfsz	??_keypad_scanner,f
  5709     0178  2977               	goto	u3227
  5710     0179  0BF1               	decfsz	??_keypad_scanner+1,f
  5711     017A  2977               	goto	u3227
  5712     017B                     l108:
  5713     017B  1283               	bcf	3,5	;RP0=0, select bank0
  5714     017C  1303               	bcf	3,6	;RP1=0, select bank0
  5715     017D  1F06               	btfss	6,6	;volatile
  5716     017E  2980               	goto	u1861
  5717     017F  2981               	goto	u1860
  5718     0180                     u1861:
  5719     0180  297B               	goto	l108
  5720     0181                     u1860:
  5721     0181                     l2667:
  5722     0181  3042               	movlw	66
  5723     0182  2A96               	goto	l100
  5724     0183                     l107:	
  5725                           ;./key_pad.h: 48:             else if (RB7 == 0) { _delay((unsigned long)((1)*(20000000/
      +                          4000.0))); while (RB7==0); return 'A'; }
  5726                           
  5727     0183  1B86               	btfsc	6,7	;volatile
  5728     0184  2986               	goto	u1871
  5729     0185  2987               	goto	u1870
  5730     0186                     u1871:
  5731     0186  2997               	goto	l101
  5732     0187                     u1870:
  5733     0187                     l2673:
  5734     0187  3007               	movlw	7
  5735     0188  00F1               	movwf	??_keypad_scanner+1
  5736     0189  307D               	movlw	125
  5737     018A  00F0               	movwf	??_keypad_scanner
  5738     018B                     u3237:
  5739     018B  0BF0               	decfsz	??_keypad_scanner,f
  5740     018C  298B               	goto	u3237
  5741     018D  0BF1               	decfsz	??_keypad_scanner+1,f
  5742     018E  298B               	goto	u3237
  5743     018F                     l113:
  5744     018F  1283               	bcf	3,5	;RP0=0, select bank0
  5745     0190  1303               	bcf	3,6	;RP1=0, select bank0
  5746     0191  1F86               	btfss	6,7	;volatile
  5747     0192  2994               	goto	u1881
  5748     0193  2995               	goto	u1880
  5749     0194                     u1881:
  5750     0194  298F               	goto	l113
  5751     0195                     u1880:
  5752     0195                     l2675:
  5753     0195  3041               	movlw	65
  5754     0196  2A96               	goto	l100
  5755     0197                     l101:
  5756                           
  5757                           ;./key_pad.h: 50:             RB0 = 1; RB1 = 0; RB2 = 1; RB3 = 1;
  5758     0197  1406               	bsf	6,0	;volatile
  5759     0198  1086               	bcf	6,1	;volatile
  5760     0199  1506               	bsf	6,2	;volatile
  5761     019A  1586               	bsf	6,3	;volatile
  5762                           
  5763                           ;./key_pad.h: 51:             if (RB4 == 0) { _delay((unsigned long)((10)*(20000000/4000
      +                          .0))); while (RB4==0); return '#'; }
  5764     019B  1A06               	btfsc	6,4	;volatile
  5765     019C  299E               	goto	u1891
  5766     019D  299F               	goto	u1890
  5767     019E                     u1891:
  5768     019E  29B0               	goto	l116
  5769     019F                     u1890:
  5770     019F                     l2679:
  5771     019F  3041               	movlw	65
  5772     01A0  00F1               	movwf	??_keypad_scanner+1
  5773     01A1  30EE               	movlw	238
  5774     01A2  00F0               	movwf	??_keypad_scanner
  5775     01A3                     u3247:
  5776     01A3  0BF0               	decfsz	??_keypad_scanner,f
  5777     01A4  29A3               	goto	u3247
  5778     01A5  0BF1               	decfsz	??_keypad_scanner+1,f
  5779     01A6  29A3               	goto	u3247
  5780     01A7  0000               	nop
  5781     01A8                     l117:
  5782     01A8  1283               	bcf	3,5	;RP0=0, select bank0
  5783     01A9  1303               	bcf	3,6	;RP1=0, select bank0
  5784     01AA  1E06               	btfss	6,4	;volatile
  5785     01AB  29AD               	goto	u1901
  5786     01AC  29AE               	goto	u1900
  5787     01AD                     u1901:
  5788     01AD  29A8               	goto	l117
  5789     01AE                     u1900:
  5790     01AE                     l2681:
  5791     01AE  3023               	movlw	35
  5792     01AF  2A96               	goto	l100
  5793     01B0                     l116:	
  5794                           ;./key_pad.h: 52:             else if (RB5 == 0) { _delay((unsigned long)((1)*(20000000/
      +                          4000.0))); while (RB5==0); return '9'; }
  5795                           
  5796     01B0  1A86               	btfsc	6,5	;volatile
  5797     01B1  29B3               	goto	u1911
  5798     01B2  29B4               	goto	u1910
  5799     01B3                     u1911:
  5800     01B3  29C4               	goto	l121
  5801     01B4                     u1910:
  5802     01B4                     l2687:
  5803     01B4  3007               	movlw	7
  5804     01B5  00F1               	movwf	??_keypad_scanner+1
  5805     01B6  307D               	movlw	125
  5806     01B7  00F0               	movwf	??_keypad_scanner
  5807     01B8                     u3257:
  5808     01B8  0BF0               	decfsz	??_keypad_scanner,f
  5809     01B9  29B8               	goto	u3257
  5810     01BA  0BF1               	decfsz	??_keypad_scanner+1,f
  5811     01BB  29B8               	goto	u3257
  5812     01BC                     l122:
  5813     01BC  1283               	bcf	3,5	;RP0=0, select bank0
  5814     01BD  1303               	bcf	3,6	;RP1=0, select bank0
  5815     01BE  1E86               	btfss	6,5	;volatile
  5816     01BF  29C1               	goto	u1921
  5817     01C0  29C2               	goto	u1920
  5818     01C1                     u1921:
  5819     01C1  29BC               	goto	l122
  5820     01C2                     u1920:
  5821     01C2                     l2689:
  5822     01C2  3039               	movlw	57
  5823     01C3  2A96               	goto	l100
  5824     01C4                     l121:	
  5825                           ;./key_pad.h: 53:             else if (RB6 == 0) { _delay((unsigned long)((1)*(20000000/
      +                          4000.0))); while (RB6==0); return '6'; }
  5826                           
  5827     01C4  1B06               	btfsc	6,6	;volatile
  5828     01C5  29C7               	goto	u1931
  5829     01C6  29C8               	goto	u1930
  5830     01C7                     u1931:
  5831     01C7  29D8               	goto	l126
  5832     01C8                     u1930:
  5833     01C8                     l2695:
  5834     01C8  3007               	movlw	7
  5835     01C9  00F1               	movwf	??_keypad_scanner+1
  5836     01CA  307D               	movlw	125
  5837     01CB  00F0               	movwf	??_keypad_scanner
  5838     01CC                     u3267:
  5839     01CC  0BF0               	decfsz	??_keypad_scanner,f
  5840     01CD  29CC               	goto	u3267
  5841     01CE  0BF1               	decfsz	??_keypad_scanner+1,f
  5842     01CF  29CC               	goto	u3267
  5843     01D0                     l127:
  5844     01D0  1283               	bcf	3,5	;RP0=0, select bank0
  5845     01D1  1303               	bcf	3,6	;RP1=0, select bank0
  5846     01D2  1F06               	btfss	6,6	;volatile
  5847     01D3  29D5               	goto	u1941
  5848     01D4  29D6               	goto	u1940
  5849     01D5                     u1941:
  5850     01D5  29D0               	goto	l127
  5851     01D6                     u1940:
  5852     01D6                     l2697:
  5853     01D6  3036               	movlw	54
  5854     01D7  2A96               	goto	l100
  5855     01D8                     l126:	
  5856                           ;./key_pad.h: 54:             else if (RB7 == 0) { _delay((unsigned long)((1)*(20000000/
      +                          4000.0))); while (RB7==0); return '3'; }
  5857                           
  5858     01D8  1B86               	btfsc	6,7	;volatile
  5859     01D9  29DB               	goto	u1951
  5860     01DA  29DC               	goto	u1950
  5861     01DB                     u1951:
  5862     01DB  29EC               	goto	l120
  5863     01DC                     u1950:
  5864     01DC                     l2703:
  5865     01DC  3007               	movlw	7
  5866     01DD  00F1               	movwf	??_keypad_scanner+1
  5867     01DE  307D               	movlw	125
  5868     01DF  00F0               	movwf	??_keypad_scanner
  5869     01E0                     u3277:
  5870     01E0  0BF0               	decfsz	??_keypad_scanner,f
  5871     01E1  29E0               	goto	u3277
  5872     01E2  0BF1               	decfsz	??_keypad_scanner+1,f
  5873     01E3  29E0               	goto	u3277
  5874     01E4                     l132:
  5875     01E4  1283               	bcf	3,5	;RP0=0, select bank0
  5876     01E5  1303               	bcf	3,6	;RP1=0, select bank0
  5877     01E6  1F86               	btfss	6,7	;volatile
  5878     01E7  29E9               	goto	u1961
  5879     01E8  29EA               	goto	u1960
  5880     01E9                     u1961:
  5881     01E9  29E4               	goto	l132
  5882     01EA                     u1960:
  5883     01EA                     l2705:
  5884     01EA  3033               	movlw	51
  5885     01EB  2A96               	goto	l100
  5886     01EC                     l120:
  5887                           
  5888                           ;./key_pad.h: 56:             RB0 = 1; RB1 = 1; RB2 = 0; RB3 = 1;
  5889     01EC  1406               	bsf	6,0	;volatile
  5890     01ED  1486               	bsf	6,1	;volatile
  5891     01EE  1106               	bcf	6,2	;volatile
  5892     01EF  1586               	bsf	6,3	;volatile
  5893                           
  5894                           ;./key_pad.h: 57:             if (RB4 == 0) { _delay((unsigned long)((1)*(20000000/4000.
      +                          0))); while (RB4==0); return '0'; }
  5895     01F0  1A06               	btfsc	6,4	;volatile
  5896     01F1  29F3               	goto	u1971
  5897     01F2  29F4               	goto	u1970
  5898     01F3                     u1971:
  5899     01F3  2A04               	goto	l135
  5900     01F4                     u1970:
  5901     01F4                     l2709:
  5902     01F4  3007               	movlw	7
  5903     01F5  00F1               	movwf	??_keypad_scanner+1
  5904     01F6  307D               	movlw	125
  5905     01F7  00F0               	movwf	??_keypad_scanner
  5906     01F8                     u3287:
  5907     01F8  0BF0               	decfsz	??_keypad_scanner,f
  5908     01F9  29F8               	goto	u3287
  5909     01FA  0BF1               	decfsz	??_keypad_scanner+1,f
  5910     01FB  29F8               	goto	u3287
  5911     01FC                     l136:
  5912     01FC  1283               	bcf	3,5	;RP0=0, select bank0
  5913     01FD  1303               	bcf	3,6	;RP1=0, select bank0
  5914     01FE  1E06               	btfss	6,4	;volatile
  5915     01FF  2A01               	goto	u1981
  5916     0200  2A02               	goto	u1980
  5917     0201                     u1981:
  5918     0201  29FC               	goto	l136
  5919     0202                     u1980:
  5920     0202                     l2711:
  5921     0202  3030               	movlw	48
  5922     0203  2A96               	goto	l100
  5923     0204                     l135:	
  5924                           ;./key_pad.h: 58:             else if (RB5 == 0) { _delay((unsigned long)((1)*(20000000/
      +                          4000.0))); while (RB5==0); return '8'; }
  5925                           
  5926     0204  1A86               	btfsc	6,5	;volatile
  5927     0205  2A07               	goto	u1991
  5928     0206  2A08               	goto	u1990
  5929     0207                     u1991:
  5930     0207  2A18               	goto	l140
  5931     0208                     u1990:
  5932     0208                     l2717:
  5933     0208  3007               	movlw	7
  5934     0209  00F1               	movwf	??_keypad_scanner+1
  5935     020A  307D               	movlw	125
  5936     020B  00F0               	movwf	??_keypad_scanner
  5937     020C                     u3297:
  5938     020C  0BF0               	decfsz	??_keypad_scanner,f
  5939     020D  2A0C               	goto	u3297
  5940     020E  0BF1               	decfsz	??_keypad_scanner+1,f
  5941     020F  2A0C               	goto	u3297
  5942     0210                     l141:
  5943     0210  1283               	bcf	3,5	;RP0=0, select bank0
  5944     0211  1303               	bcf	3,6	;RP1=0, select bank0
  5945     0212  1E86               	btfss	6,5	;volatile
  5946     0213  2A15               	goto	u2001
  5947     0214  2A16               	goto	u2000
  5948     0215                     u2001:
  5949     0215  2A10               	goto	l141
  5950     0216                     u2000:
  5951     0216                     l2719:
  5952     0216  3038               	movlw	56
  5953     0217  2A96               	goto	l100
  5954     0218                     l140:	
  5955                           ;./key_pad.h: 59:             else if (RB6 == 0) { _delay((unsigned long)((1)*(20000000/
      +                          4000.0))); while (RB6==0); return '5'; }
  5956                           
  5957     0218  1B06               	btfsc	6,6	;volatile
  5958     0219  2A1B               	goto	u2011
  5959     021A  2A1C               	goto	u2010
  5960     021B                     u2011:
  5961     021B  2A2C               	goto	l145
  5962     021C                     u2010:
  5963     021C                     l2725:
  5964     021C  3007               	movlw	7
  5965     021D  00F1               	movwf	??_keypad_scanner+1
  5966     021E  307D               	movlw	125
  5967     021F  00F0               	movwf	??_keypad_scanner
  5968     0220                     u3307:
  5969     0220  0BF0               	decfsz	??_keypad_scanner,f
  5970     0221  2A20               	goto	u3307
  5971     0222  0BF1               	decfsz	??_keypad_scanner+1,f
  5972     0223  2A20               	goto	u3307
  5973     0224                     l146:
  5974     0224  1283               	bcf	3,5	;RP0=0, select bank0
  5975     0225  1303               	bcf	3,6	;RP1=0, select bank0
  5976     0226  1F06               	btfss	6,6	;volatile
  5977     0227  2A29               	goto	u2021
  5978     0228  2A2A               	goto	u2020
  5979     0229                     u2021:
  5980     0229  2A24               	goto	l146
  5981     022A                     u2020:
  5982     022A                     l2727:
  5983     022A  3035               	movlw	53
  5984     022B  2A96               	goto	l100
  5985     022C                     l145:	
  5986                           ;./key_pad.h: 60:             else if (RB7 == 0) { _delay((unsigned long)((1)*(20000000/
      +                          4000.0))); while (RB7==0); return '2'; }
  5987                           
  5988     022C  1B86               	btfsc	6,7	;volatile
  5989     022D  2A2F               	goto	u2031
  5990     022E  2A30               	goto	u2030
  5991     022F                     u2031:
  5992     022F  2A40               	goto	l139
  5993     0230                     u2030:
  5994     0230                     l2733:
  5995     0230  3007               	movlw	7
  5996     0231  00F1               	movwf	??_keypad_scanner+1
  5997     0232  307D               	movlw	125
  5998     0233  00F0               	movwf	??_keypad_scanner
  5999     0234                     u3317:
  6000     0234  0BF0               	decfsz	??_keypad_scanner,f
  6001     0235  2A34               	goto	u3317
  6002     0236  0BF1               	decfsz	??_keypad_scanner+1,f
  6003     0237  2A34               	goto	u3317
  6004     0238                     l151:
  6005     0238  1283               	bcf	3,5	;RP0=0, select bank0
  6006     0239  1303               	bcf	3,6	;RP1=0, select bank0
  6007     023A  1F86               	btfss	6,7	;volatile
  6008     023B  2A3D               	goto	u2041
  6009     023C  2A3E               	goto	u2040
  6010     023D                     u2041:
  6011     023D  2A38               	goto	l151
  6012     023E                     u2040:
  6013     023E                     l2735:
  6014     023E  3032               	movlw	50
  6015     023F  2A96               	goto	l100
  6016     0240                     l139:
  6017                           
  6018                           ;./key_pad.h: 62:             RB0 = 1; RB1 = 1; RB2 = 1; RB3 = 0;
  6019     0240  1406               	bsf	6,0	;volatile
  6020     0241  1486               	bsf	6,1	;volatile
  6021     0242  1506               	bsf	6,2	;volatile
  6022     0243  1186               	bcf	6,3	;volatile
  6023                           
  6024                           ;./key_pad.h: 63:             if (RB4 == 0) { _delay((unsigned long)((10)*(20000000/4000
      +                          .0))); while (RB4==0); return '*'; }
  6025     0244  1A06               	btfsc	6,4	;volatile
  6026     0245  2A47               	goto	u2051
  6027     0246  2A48               	goto	u2050
  6028     0247                     u2051:
  6029     0247  2A59               	goto	l154
  6030     0248                     u2050:
  6031     0248                     l2739:
  6032     0248  3041               	movlw	65
  6033     0249  00F1               	movwf	??_keypad_scanner+1
  6034     024A  30EE               	movlw	238
  6035     024B  00F0               	movwf	??_keypad_scanner
  6036     024C                     u3327:
  6037     024C  0BF0               	decfsz	??_keypad_scanner,f
  6038     024D  2A4C               	goto	u3327
  6039     024E  0BF1               	decfsz	??_keypad_scanner+1,f
  6040     024F  2A4C               	goto	u3327
  6041     0250  0000               	nop
  6042     0251                     l155:
  6043     0251  1283               	bcf	3,5	;RP0=0, select bank0
  6044     0252  1303               	bcf	3,6	;RP1=0, select bank0
  6045     0253  1E06               	btfss	6,4	;volatile
  6046     0254  2A56               	goto	u2061
  6047     0255  2A57               	goto	u2060
  6048     0256                     u2061:
  6049     0256  2A51               	goto	l155
  6050     0257                     u2060:
  6051     0257                     l2741:
  6052     0257  302A               	movlw	42
  6053     0258  2A96               	goto	l100
  6054     0259                     l154:	
  6055                           ;./key_pad.h: 64:             else if (RB5 == 0) { _delay((unsigned long)((1)*(20000000/
      +                          4000.0))); while (RB5==0); return '7'; }
  6056                           
  6057     0259  1A86               	btfsc	6,5	;volatile
  6058     025A  2A5C               	goto	u2071
  6059     025B  2A5D               	goto	u2070
  6060     025C                     u2071:
  6061     025C  2A6D               	goto	l159
  6062     025D                     u2070:
  6063     025D                     l2747:
  6064     025D  3007               	movlw	7
  6065     025E  00F1               	movwf	??_keypad_scanner+1
  6066     025F  307D               	movlw	125
  6067     0260  00F0               	movwf	??_keypad_scanner
  6068     0261                     u3337:
  6069     0261  0BF0               	decfsz	??_keypad_scanner,f
  6070     0262  2A61               	goto	u3337
  6071     0263  0BF1               	decfsz	??_keypad_scanner+1,f
  6072     0264  2A61               	goto	u3337
  6073     0265                     l160:
  6074     0265  1283               	bcf	3,5	;RP0=0, select bank0
  6075     0266  1303               	bcf	3,6	;RP1=0, select bank0
  6076     0267  1E86               	btfss	6,5	;volatile
  6077     0268  2A6A               	goto	u2081
  6078     0269  2A6B               	goto	u2080
  6079     026A                     u2081:
  6080     026A  2A65               	goto	l160
  6081     026B                     u2080:
  6082     026B                     l2749:
  6083     026B  3037               	movlw	55
  6084     026C  2A96               	goto	l100
  6085     026D                     l159:	
  6086                           ;./key_pad.h: 65:             else if (RB6 == 0) { _delay((unsigned long)((1)*(20000000/
      +                          4000.0))); while (RB6==0); return '4'; }
  6087                           
  6088     026D  1B06               	btfsc	6,6	;volatile
  6089     026E  2A70               	goto	u2091
  6090     026F  2A71               	goto	u2090
  6091     0270                     u2091:
  6092     0270  2A81               	goto	l164
  6093     0271                     u2090:
  6094     0271                     l2755:
  6095     0271  3007               	movlw	7
  6096     0272  00F1               	movwf	??_keypad_scanner+1
  6097     0273  307D               	movlw	125
  6098     0274  00F0               	movwf	??_keypad_scanner
  6099     0275                     u3347:
  6100     0275  0BF0               	decfsz	??_keypad_scanner,f
  6101     0276  2A75               	goto	u3347
  6102     0277  0BF1               	decfsz	??_keypad_scanner+1,f
  6103     0278  2A75               	goto	u3347
  6104     0279                     l165:
  6105     0279  1283               	bcf	3,5	;RP0=0, select bank0
  6106     027A  1303               	bcf	3,6	;RP1=0, select bank0
  6107     027B  1F06               	btfss	6,6	;volatile
  6108     027C  2A7E               	goto	u2101
  6109     027D  2A7F               	goto	u2100
  6110     027E                     u2101:
  6111     027E  2A79               	goto	l165
  6112     027F                     u2100:
  6113     027F                     l2757:
  6114     027F  3034               	movlw	52
  6115     0280  2A96               	goto	l100
  6116     0281                     l164:	
  6117                           ;./key_pad.h: 66:             else if (RB7 == 0) { _delay((unsigned long)((1)*(20000000/
      +                          4000.0))); while (RB7==0); return '1'; }
  6118                           
  6119     0281  1B86               	btfsc	6,7	;volatile
  6120     0282  2A84               	goto	u2111
  6121     0283  2A85               	goto	u2110
  6122     0284                     u2111:
  6123     0284  2A95               	goto	l163
  6124     0285                     u2110:
  6125     0285                     l2763:
  6126     0285  3007               	movlw	7
  6127     0286  00F1               	movwf	??_keypad_scanner+1
  6128     0287  307D               	movlw	125
  6129     0288  00F0               	movwf	??_keypad_scanner
  6130     0289                     u3357:
  6131     0289  0BF0               	decfsz	??_keypad_scanner,f
  6132     028A  2A89               	goto	u3357
  6133     028B  0BF1               	decfsz	??_keypad_scanner+1,f
  6134     028C  2A89               	goto	u3357
  6135     028D                     l170:
  6136     028D  1283               	bcf	3,5	;RP0=0, select bank0
  6137     028E  1303               	bcf	3,6	;RP1=0, select bank0
  6138     028F  1F86               	btfss	6,7	;volatile
  6139     0290  2A92               	goto	u2121
  6140     0291  2A93               	goto	u2120
  6141     0292                     u2121:
  6142     0292  2A8D               	goto	l170
  6143     0293                     u2120:
  6144     0293                     l2765:
  6145     0293  3031               	movlw	49
  6146     0294  2A96               	goto	l100
  6147     0295                     l163:
  6148     0295                     l2769:
  6149                           
  6150                           ;./key_pad.h: 68:     return 'n';
  6151     0295  306E               	movlw	110
  6152     0296                     l100:
  6153     0296  0008               	return
  6154     0297                     __end_of_keypad_scanner:
  6155                           
  6156                           	psect	text18
  6157     0993                     __ptext18:	
  6158 ;; *************** function _readEEPROM *****************
  6159 ;; Defined at:
  6160 ;;		line 38 in file "mainproject.c"
  6161 ;; Parameters:    Size  Location     Type
  6162 ;;  address         1    wreg     unsigned char 
  6163 ;; Auto vars:     Size  Location     Type
  6164 ;;  address         1    0[COMMON] unsigned char 
  6165 ;; Return value:  Size  Location     Type
  6166 ;;                  1    wreg      unsigned char 
  6167 ;; Registers used:
  6168 ;;		wreg
  6169 ;; Tracked objects:
  6170 ;;		On entry : 0/0
  6171 ;;		On exit  : 0/0
  6172 ;;		Unchanged: 0/0
  6173 ;; Data sizes:     COMMON   BANK0   BANK1   BANK3   BANK2
  6174 ;;      Params:         0       0       0       0       0
  6175 ;;      Locals:         1       0       0       0       0
  6176 ;;      Temps:          0       0       0       0       0
  6177 ;;      Totals:         1       0       0       0       0
  6178 ;;Total ram usage:        1 bytes
  6179 ;; Hardware stack levels used: 1
  6180 ;; This function calls:
  6181 ;;		Nothing
  6182 ;; This function is called by:
  6183 ;;		_lenh_mocua_quetthe
  6184 ;;		_lenh_mocua_matkhau
  6185 ;;		_lenh_themthe
  6186 ;;		_lenh_doipass
  6187 ;;		_check_dulieu_the
  6188 ;; This function uses a non-reentrant model
  6189 ;;
  6190                           
  6191     0993                     _readEEPROM:	
  6192                           ;psect for function _readEEPROM
  6193                           
  6194                           
  6195                           ;incstack = 0
  6196                           ; Regs used in _readEEPROM: [wreg]
  6197                           ;readEEPROM@address stored from wreg
  6198     0993  00F0               	movwf	readEEPROM@address
  6199     0994                     l2819:
  6200                           
  6201                           ;mainproject.c: 39:     EEADR = address;
  6202     0994  0870               	movf	readEEPROM@address,w
  6203     0995  1283               	bcf	3,5	;RP0=0, select bank2
  6204     0996  1703               	bsf	3,6	;RP1=1, select bank2
  6205     0997  008D               	movwf	13	;volatile
  6206     0998                     l2821:
  6207                           
  6208                           ;mainproject.c: 40:     EECON1bits.EEPGD = 0;
  6209     0998  1683               	bsf	3,5	;RP0=1, select bank3
  6210     0999  1703               	bsf	3,6	;RP1=1, select bank3
  6211     099A  138C               	bcf	12,7	;volsfr
  6212     099B                     l2823:
  6213                           
  6214                           ;mainproject.c: 41:     EECON1bits.RD = 1;
  6215     099B  140C               	bsf	12,0	;volsfr
  6216                           
  6217                           ;mainproject.c: 42:     return EEDATA;
  6218     099C  1283               	bcf	3,5	;RP0=0, select bank2
  6219     099D  1703               	bsf	3,6	;RP1=1, select bank2
  6220     099E  080C               	movf	12,w	;volatile
  6221     099F                     l488:
  6222     099F  0008               	return
  6223     09A0                     __end_of_readEEPROM:
  6224                           
  6225                           	psect	text19
  6226     0C54                     __ptext19:	
  6227 ;; *************** function _failunlock *****************
  6228 ;; Defined at:
  6229 ;;		line 26 in file "./menu.h"
  6230 ;; Parameters:    Size  Location     Type
  6231 ;;		None
  6232 ;; Auto vars:     Size  Location     Type
  6233 ;;		None
  6234 ;; Return value:  Size  Location     Type
  6235 ;;                  1    wreg      void 
  6236 ;; Registers used:
  6237 ;;		wreg, fsr0l, fsr0h, status,2, status,0, btemp+1, pclath, cstack
  6238 ;; Tracked objects:
  6239 ;;		On entry : 0/0
  6240 ;;		On exit  : 0/0
  6241 ;;		Unchanged: 0/0
  6242 ;; Data sizes:     COMMON   BANK0   BANK1   BANK3   BANK2
  6243 ;;      Params:         0       0       0       0       0
  6244 ;;      Locals:         0       0       0       0       0
  6245 ;;      Temps:          3       0       0       0       0
  6246 ;;      Totals:         3       0       0       0       0
  6247 ;;Total ram usage:        3 bytes
  6248 ;; Hardware stack levels used: 1
  6249 ;; Hardware stack levels required when called: 2
  6250 ;; This function calls:
  6251 ;;		_chuoi_kytu
  6252 ;;		_clear_lcd
  6253 ;;		_lenh
  6254 ;; This function is called by:
  6255 ;;		_lenh_mocua_quetthe
  6256 ;;		_lenh_mocua_matkhau
  6257 ;;		_lenh_themthe
  6258 ;;		_lenh_doipass
  6259 ;; This function uses a non-reentrant model
  6260 ;;
  6261                           
  6262     0C54                     _failunlock:	
  6263                           ;psect for function _failunlock
  6264                           
  6265     0C54                     l2881:	
  6266                           ;incstack = 0
  6267                           ; Regs used in _failunlock: [wreg-fsr0h+status,2+status,0+btemp+1+pclath+cstack]
  6268                           
  6269                           
  6270                           ;./menu.h: 27:         PORTAbits.RA0 = 1;
  6271     0C54  120A  118A  200C  120A  158A  	fcall	_clear_lcd
  6272                           
  6273                           ;./menu.h: 28:         _delay((unsigned long)((500)*(20000000/4000.0)));
  6274     0C59  30C2               	movlw	194
  6275     0C5A  120A  158A  22B4  120A  158A  	fcall	_lenh
  6276     0C5F                     l2883:
  6277                           
  6278                           ;./menu.h: 29:         PORTAbits.RA0 = 0;
  6279     0C5F  30FC               	movlw	low (STR_1| (0+32768))
  6280     0C60  00F2               	movwf	chuoi_kytu@a
  6281     0C61  3088               	movlw	high (STR_1| (0+32768))
  6282     0C62  00F3               	movwf	chuoi_kytu@a+1
  6283     0C63  120A  158A  236D  120A  158A  	fcall	_chuoi_kytu
  6284     0C68                     l2885:
  6285                           
  6286                           ;./menu.h: 30:         PORTAbits.RA1 = 1;
  6287     0C68  1283               	bcf	3,5	;RP0=0, select bank0
  6288     0C69  1303               	bcf	3,6	;RP1=0, select bank0
  6289     0C6A  1405               	bsf	5,0	;volatile
  6290     0C6B                     l2887:
  6291                           
  6292                           ;./menu.h: 31:         _delay((unsigned long)((500)*(20000000/4000.0)));
  6293     0C6B  300D               	movlw	13
  6294     0C6C  00F7               	movwf	??_failunlock+2
  6295     0C6D  30AF               	movlw	175
  6296     0C6E  00F6               	movwf	??_failunlock+1
  6297     0C6F  30B6               	movlw	182
  6298     0C70  00F5               	movwf	??_failunlock
  6299     0C71                     u3367:
  6300     0C71  0BF5               	decfsz	??_failunlock,f
  6301     0C72  2C71               	goto	u3367
  6302     0C73  0BF6               	decfsz	??_failunlock+1,f
  6303     0C74  2C71               	goto	u3367
  6304     0C75  0BF7               	decfsz	??_failunlock+2,f
  6305     0C76  2C71               	goto	u3367
  6306     0C77  0000               	nop
  6307     0C78                     l2889:
  6308                           
  6309                           ;./menu.h: 32:         PORTAbits.RA1 = 0;
  6310     0C78  1283               	bcf	3,5	;RP0=0, select bank0
  6311     0C79  1303               	bcf	3,6	;RP1=0, select bank0
  6312     0C7A  1005               	bcf	5,0	;volatile
  6313     0C7B                     l2891:
  6314                           
  6315                           ;./menu.h: 33:         PORTAbits.RA2 = 1;
  6316     0C7B  1485               	bsf	5,1	;volatile
  6317     0C7C                     l2893:
  6318                           
  6319                           ;./menu.h: 34:         _delay((unsigned long)((500)*(20000000/4000.0)));
  6320     0C7C  300D               	movlw	13
  6321     0C7D  00F7               	movwf	??_failunlock+2
  6322     0C7E  30AF               	movlw	175
  6323     0C7F  00F6               	movwf	??_failunlock+1
  6324     0C80  30B6               	movlw	182
  6325     0C81  00F5               	movwf	??_failunlock
  6326     0C82                     u3377:
  6327     0C82  0BF5               	decfsz	??_failunlock,f
  6328     0C83  2C82               	goto	u3377
  6329     0C84  0BF6               	decfsz	??_failunlock+1,f
  6330     0C85  2C82               	goto	u3377
  6331     0C86  0BF7               	decfsz	??_failunlock+2,f
  6332     0C87  2C82               	goto	u3377
  6333     0C88  0000               	nop
  6334     0C89                     l2895:
  6335                           
  6336                           ;./menu.h: 35:         PORTAbits.RA2 = 0;
  6337     0C89  1283               	bcf	3,5	;RP0=0, select bank0
  6338     0C8A  1303               	bcf	3,6	;RP1=0, select bank0
  6339     0C8B  1085               	bcf	5,1	;volatile
  6340     0C8C                     l2897:
  6341                           
  6342                           ;./menu.h: 36:             clear_lcd();
  6343     0C8C  1505               	bsf	5,2	;volatile
  6344     0C8D                     l2899:
  6345                           
  6346                           ;./menu.h: 37:             lenh(0x82);
  6347     0C8D  300D               	movlw	13
  6348     0C8E  00F7               	movwf	??_failunlock+2
  6349     0C8F  30AF               	movlw	175
  6350     0C90  00F6               	movwf	??_failunlock+1
  6351     0C91  30B6               	movlw	182
  6352     0C92  00F5               	movwf	??_failunlock
  6353     0C93                     u3387:
  6354     0C93  0BF5               	decfsz	??_failunlock,f
  6355     0C94  2C93               	goto	u3387
  6356     0C95  0BF6               	decfsz	??_failunlock+1,f
  6357     0C96  2C93               	goto	u3387
  6358     0C97  0BF7               	decfsz	??_failunlock+2,f
  6359     0C98  2C93               	goto	u3387
  6360     0C99  0000               	nop
  6361     0C9A                     l2901:
  6362                           
  6363                           ;./menu.h: 38:             chuoi_kytu(" Dang mo cua");
  6364     0C9A  1283               	bcf	3,5	;RP0=0, select bank0
  6365     0C9B  1303               	bcf	3,6	;RP1=0, select bank0
  6366     0C9C  1105               	bcf	5,2	;volatile
  6367     0C9D                     l2903:
  6368                           
  6369                           ;./menu.h: 39:             PORTAbits.RA5 = 1;
  6370     0C9D  120A  118A  200C  120A  158A  	fcall	_clear_lcd
  6371     0CA2                     l386:
  6372     0CA2  0008               	return
  6373     0CA3                     __end_of_failunlock:
  6374                           
  6375                           	psect	text20
  6376     0BCB                     __ptext20:	
  6377 ;; *************** function _menu *****************
  6378 ;; Defined at:
  6379 ;;		line 336 in file "./menu.h"
  6380 ;; Parameters:    Size  Location     Type
  6381 ;;		None
  6382 ;; Auto vars:     Size  Location     Type
  6383 ;;		None
  6384 ;; Return value:  Size  Location     Type
  6385 ;;                  1    wreg      void 
  6386 ;; Registers used:
  6387 ;;		wreg, fsr0l, fsr0h, status,2, status,0, btemp+1, pclath, cstack
  6388 ;; Tracked objects:
  6389 ;;		On entry : 0/0
  6390 ;;		On exit  : 0/0
  6391 ;;		Unchanged: 0/0
  6392 ;; Data sizes:     COMMON   BANK0   BANK1   BANK3   BANK2
  6393 ;;      Params:         0       0       0       0       0
  6394 ;;      Locals:         0       0       0       0       0
  6395 ;;      Temps:          0       0       0       0       0
  6396 ;;      Totals:         0       0       0       0       0
  6397 ;;Total ram usage:        0 bytes
  6398 ;; Hardware stack levels used: 1
  6399 ;; Hardware stack levels required when called: 2
  6400 ;; This function calls:
  6401 ;;		_chuoi_kytu
  6402 ;;		_clear_lcd
  6403 ;;		_lenh
  6404 ;; This function is called by:
  6405 ;;		_main
  6406 ;; This function uses a non-reentrant model
  6407 ;;
  6408                           
  6409     0BCB                     _menu:	
  6410                           ;psect for function _menu
  6411                           
  6412     0BCB                     l3461:	
  6413                           ;incstack = 0
  6414                           ; Regs used in _menu: [wreg-fsr0h+status,2+status,0+btemp+1+pclath+cstack]
  6415                           
  6416                           
  6417                           ;./menu.h: 337:         lenh(0x80);
  6418     0BCB  120A  118A  200C  120A  158A  	fcall	_clear_lcd
  6419                           
  6420                           ;./menu.h: 338:         chuoi_kytu("A mo cua quet the");
  6421     0BD0  3080               	movlw	128
  6422     0BD1  120A  158A  22B4  120A  158A  	fcall	_lenh
  6423     0BD6                     l3463:
  6424                           
  6425                           ;./menu.h: 339:         lenh(0xc0);
  6426     0BD6  309B               	movlw	low (STR_20| (0+32768))
  6427     0BD7  00F2               	movwf	chuoi_kytu@a
  6428     0BD8  3088               	movlw	high (STR_20| (0+32768))
  6429     0BD9  00F3               	movwf	chuoi_kytu@a+1
  6430     0BDA  120A  158A  236D  120A  158A  	fcall	_chuoi_kytu
  6431     0BDF                     l3465:
  6432                           
  6433                           ;./menu.h: 340:         chuoi_kytu("B nhap mat khau");
  6434     0BDF  30C0               	movlw	192
  6435     0BE0  120A  158A  22B4  120A  158A  	fcall	_lenh
  6436                           
  6437                           ;./menu.h: 341:         char nut;
  6438     0BE5  3051               	movlw	low (STR_21| (0+32768))
  6439     0BE6  00F2               	movwf	chuoi_kytu@a
  6440     0BE7  3088               	movlw	high (STR_21| (0+32768))
  6441     0BE8  00F3               	movwf	chuoi_kytu@a+1
  6442     0BE9  120A  158A  236D  120A  158A  	fcall	_chuoi_kytu
  6443     0BEE                     l3467:
  6444                           
  6445                           ;./menu.h: 342:         nut = switch_press_scan();
  6446     0BEE  3094               	movlw	148
  6447     0BEF  120A  158A  22B4  120A  158A  	fcall	_lenh
  6448     0BF4                     l3469:
  6449                           
  6450                           ;./menu.h: 343:         while(nut == ('1','2','3','4','5','6','7','8','9','0','*','#','C
      +                          ','D')){
  6451     0BF4  3077               	movlw	low (STR_22| (0+32768))
  6452     0BF5  00F2               	movwf	chuoi_kytu@a
  6453     0BF6  3088               	movlw	high (STR_22| (0+32768))
  6454     0BF7  00F3               	movwf	chuoi_kytu@a+1
  6455     0BF8  120A  158A  236D  120A  158A  	fcall	_chuoi_kytu
  6456                           
  6457                           ;./menu.h: 344:                 nut = switch_press_scan();
  6458     0BFD  30D4               	movlw	212
  6459     0BFE  120A  158A  22B4  120A  158A  	fcall	_lenh
  6460     0C03                     l3471:
  6461                           
  6462                           ;./menu.h: 345:         }
  6463     0C03  3029               	movlw	low (STR_23| (0+32768))
  6464     0C04  00F2               	movwf	chuoi_kytu@a
  6465     0C05  3088               	movlw	high (STR_23| (0+32768))
  6466     0C06  00F3               	movwf	chuoi_kytu@a+1
  6467     0C07  120A  158A  236D  120A  158A  	fcall	_chuoi_kytu
  6468     0C0C                     l469:
  6469     0C0C  0008               	return
  6470     0C0D                     __end_of_menu:
  6471                           
  6472                           	psect	text21
  6473     000C                     __ptext21:	
  6474 ;; *************** function _clear_lcd *****************
  6475 ;; Defined at:
  6476 ;;		line 63 in file "./mainlcd.h"
  6477 ;; Parameters:    Size  Location     Type
  6478 ;;		None
  6479 ;; Auto vars:     Size  Location     Type
  6480 ;;  a               1    3[COMMON] unsigned char 
  6481 ;; Return value:  Size  Location     Type
  6482 ;;                  1    wreg      void 
  6483 ;; Registers used:
  6484 ;;		wreg, status,2, status,0
  6485 ;; Tracked objects:
  6486 ;;		On entry : 0/0
  6487 ;;		On exit  : 0/0
  6488 ;;		Unchanged: 0/0
  6489 ;; Data sizes:     COMMON   BANK0   BANK1   BANK3   BANK2
  6490 ;;      Params:         0       0       0       0       0
  6491 ;;      Locals:         1       0       0       0       0
  6492 ;;      Temps:          3       0       0       0       0
  6493 ;;      Totals:         4       0       0       0       0
  6494 ;;Total ram usage:        4 bytes
  6495 ;; Hardware stack levels used: 1
  6496 ;; This function calls:
  6497 ;;		Nothing
  6498 ;; This function is called by:
  6499 ;;		_failunlock
  6500 ;;		_unlock
  6501 ;;		_lenh_mocua_quetthe
  6502 ;;		_lenh_mocua_matkhau
  6503 ;;		_lenh_themthe
  6504 ;;		_lenh_xoathe
  6505 ;;		_lenh_doipass
  6506 ;;		_menu
  6507 ;;		_taplenh_menu
  6508 ;; This function uses a non-reentrant model
  6509 ;;
  6510                           
  6511     000C                     _clear_lcd:	
  6512                           ;psect for function _clear_lcd
  6513                           
  6514     000C                     l2625:	
  6515                           ;incstack = 0
  6516                           ; Regs used in _clear_lcd: [wreg+status,2+status,0]
  6517                           
  6518                           
  6519                           ;./mainlcd.h: 64:     unsigned char a;;./mainlcd.h: 65:     a = 0x01;
  6520     000C  01F3               	clrf	clear_lcd@a
  6521     000D  0AF3               	incf	clear_lcd@a,f
  6522                           
  6523                           ;./mainlcd.h: 66:     PORTDbits.RD0 = 0;
  6524     000E  1283               	bcf	3,5	;RP0=0, select bank0
  6525     000F  1303               	bcf	3,6	;RP1=0, select bank0
  6526     0010  1008               	bcf	8,0	;volatile
  6527                           
  6528                           ;./mainlcd.h: 67:     PORTDbits.RD1 = 0;
  6529     0011  1088               	bcf	8,1	;volatile
  6530     0012                     l2627:
  6531                           
  6532                           ;./mainlcd.h: 68:     PORTD = a & 0xF0;
  6533     0012  0188               	clrf	8	;volatile
  6534     0013                     l2629:
  6535                           
  6536                           ;./mainlcd.h: 69:     _delay((unsigned long)((40)*(20000000/4000000.0)));
  6537     0013  3042               	movlw	66
  6538     0014  00F0               	movwf	??_clear_lcd
  6539     0015                     u3397:
  6540     0015  0BF0               	decfsz	??_clear_lcd,f
  6541     0016  2815               	goto	u3397
  6542     0017  0000               	nop
  6543     0018                     l2631:
  6544                           
  6545                           ;./mainlcd.h: 70:     PORTDbits.RD2 = 1;
  6546     0018  1283               	bcf	3,5	;RP0=0, select bank0
  6547     0019  1303               	bcf	3,6	;RP1=0, select bank0
  6548     001A  1508               	bsf	8,2	;volatile
  6549     001B                     l2633:
  6550                           
  6551                           ;./mainlcd.h: 71:     PORTDbits.RD2 = 0;
  6552     001B  1108               	bcf	8,2	;volatile
  6553     001C                     l2635:
  6554                           
  6555                           ;./mainlcd.h: 72:     a = a<<4;
  6556     001C  0873               	movf	clear_lcd@a,w
  6557     001D  00F0               	movwf	??_clear_lcd
  6558     001E  3003               	movlw	3
  6559     001F                     u1805:
  6560     001F  1003               	clrc
  6561     0020  0DF0               	rlf	??_clear_lcd,f
  6562     0021  3EFF               	addlw	-1
  6563     0022  1D03               	skipz
  6564     0023  281F               	goto	u1805
  6565     0024  1003               	clrc
  6566     0025  0D70               	rlf	??_clear_lcd,w
  6567     0026  00F3               	movwf	clear_lcd@a
  6568     0027                     l2637:
  6569                           
  6570                           ;./mainlcd.h: 73:     _delay((unsigned long)((40)*(20000000/4000000.0)));
  6571     0027  3042               	movlw	66
  6572     0028  00F0               	movwf	??_clear_lcd
  6573     0029                     u3407:
  6574     0029  0BF0               	decfsz	??_clear_lcd,f
  6575     002A  2829               	goto	u3407
  6576     002B  0000               	nop
  6577     002C                     l2639:
  6578                           
  6579                           ;./mainlcd.h: 74:     PORTD = a & 0xF0;
  6580     002C  0873               	movf	clear_lcd@a,w
  6581     002D  39F0               	andlw	240
  6582     002E  1283               	bcf	3,5	;RP0=0, select bank0
  6583     002F  1303               	bcf	3,6	;RP1=0, select bank0
  6584     0030  0088               	movwf	8	;volatile
  6585     0031                     l2641:
  6586                           
  6587                           ;./mainlcd.h: 75:     PORTDbits.RD2 = 1;
  6588     0031  1508               	bsf	8,2	;volatile
  6589     0032                     l2643:
  6590                           
  6591                           ;./mainlcd.h: 76:     PORTDbits.RD2 = 0;
  6592     0032  1108               	bcf	8,2	;volatile
  6593     0033                     l2645:
  6594                           
  6595                           ;./mainlcd.h: 77:     _delay((unsigned long)((500)*(20000000/4000.0)));
  6596     0033  300D               	movlw	13
  6597     0034  00F2               	movwf	??_clear_lcd+2
  6598     0035  30AF               	movlw	175
  6599     0036  00F1               	movwf	??_clear_lcd+1
  6600     0037  30B6               	movlw	182
  6601     0038  00F0               	movwf	??_clear_lcd
  6602     0039                     u3417:
  6603     0039  0BF0               	decfsz	??_clear_lcd,f
  6604     003A  2839               	goto	u3417
  6605     003B  0BF1               	decfsz	??_clear_lcd+1,f
  6606     003C  2839               	goto	u3417
  6607     003D  0BF2               	decfsz	??_clear_lcd+2,f
  6608     003E  2839               	goto	u3417
  6609     003F  0000               	nop
  6610     0040                     l87:
  6611     0040  0008               	return
  6612     0041                     __end_of_clear_lcd:
  6613                           
  6614                           	psect	text22
  6615     0B6D                     __ptext22:	
  6616 ;; *************** function _chuoi_kytu *****************
  6617 ;; Defined at:
  6618 ;;		line 57 in file "./mainlcd.h"
  6619 ;; Parameters:    Size  Location     Type
  6620 ;;  a               2    2[COMMON] PTR unsigned char 
  6621 ;;		 -> STR_25(16), STR_24(18), STR_23(20), STR_22(18), 
  6622 ;;		 -> STR_21(19), STR_20(17), STR_19(21), STR_17(10), 
  6623 ;;		 -> STR_16(15), STR_15(17), STR_14(13), STR_13(8), 
  6624 ;;		 -> STR_12(20), STR_11(17), STR_10(15), STR_9(20), 
  6625 ;;		 -> STR_8(9), STR_7(10), STR_6(10), STR_5(17), 
  6626 ;;		 -> STR_4(5), STR_3(19), STR_2(13), STR_1(14), 
  6627 ;; Auto vars:     Size  Location     Type
  6628 ;;  i               1    4[COMMON] unsigned char 
  6629 ;; Return value:  Size  Location     Type
  6630 ;;                  1    wreg      void 
  6631 ;; Registers used:
  6632 ;;		wreg, fsr0l, fsr0h, status,2, status,0, btemp+1, pclath, cstack
  6633 ;; Tracked objects:
  6634 ;;		On entry : 0/0
  6635 ;;		On exit  : 0/0
  6636 ;;		Unchanged: 0/0
  6637 ;; Data sizes:     COMMON   BANK0   BANK1   BANK3   BANK2
  6638 ;;      Params:         2       0       0       0       0
  6639 ;;      Locals:         1       0       0       0       0
  6640 ;;      Temps:          0       0       0       0       0
  6641 ;;      Totals:         3       0       0       0       0
  6642 ;;Total ram usage:        3 bytes
  6643 ;; Hardware stack levels used: 1
  6644 ;; Hardware stack levels required when called: 1
  6645 ;; This function calls:
  6646 ;;		_du_lieu
  6647 ;; This function is called by:
  6648 ;;		_failunlock
  6649 ;;		_unlock
  6650 ;;		_lenh_mocua_quetthe
  6651 ;;		_lenh_mocua_matkhau
  6652 ;;		_lenh_themthe
  6653 ;;		_lenh_xoathe
  6654 ;;		_lenh_doipass
  6655 ;;		_menu
  6656 ;;		_taplenh_menu
  6657 ;; This function uses a non-reentrant model
  6658 ;;
  6659                           
  6660     0B6D                     _chuoi_kytu:	
  6661                           ;psect for function _chuoi_kytu
  6662                           
  6663     0B6D                     l2617:	
  6664                           ;incstack = 0
  6665                           ; Regs used in _chuoi_kytu: [wreg-fsr0h+status,2+status,0+btemp+1+pclath+cstack]
  6666                           
  6667                           
  6668                           ;./mainlcd.h: 58:     unsigned char i;;./mainlcd.h: 59:     for(i =0; a[i] != '\0'; i++)
      +                          {
  6669     0B6D  01F4               	clrf	chuoi_kytu@i
  6670     0B6E  2B84               	goto	l2623
  6671     0B6F                     l2619:
  6672                           
  6673                           ;./mainlcd.h: 60:         du_lieu(a[i]);
  6674     0B6F  0874               	movf	chuoi_kytu@i,w
  6675     0B70  0772               	addwf	chuoi_kytu@a,w
  6676     0B71  0084               	movwf	4
  6677     0B72  0873               	movf	chuoi_kytu@a+1,w
  6678     0B73  1803               	skipnc
  6679     0B74  0A73               	incf	chuoi_kytu@a+1,w
  6680     0B75  00FF               	movwf	btemp+1
  6681     0B76  120A  158A  2150  120A  158A  	fcall	stringtab
  6682     0B7B  120A  158A  22D4  120A  158A  	fcall	_du_lieu
  6683     0B80                     l2621:
  6684                           
  6685                           ;./mainlcd.h: 61:     }
  6686     0B80  3001               	movlw	1
  6687     0B81  00FF               	movwf	btemp+1
  6688     0B82  087F               	movf	btemp+1,w
  6689     0B83  07F4               	addwf	chuoi_kytu@i,f
  6690     0B84                     l2623:
  6691     0B84  0874               	movf	chuoi_kytu@i,w
  6692     0B85  0772               	addwf	chuoi_kytu@a,w
  6693     0B86  0084               	movwf	4
  6694     0B87  0873               	movf	chuoi_kytu@a+1,w
  6695     0B88  1803               	skipnc
  6696     0B89  0A73               	incf	chuoi_kytu@a+1,w
  6697     0B8A  1283               	bcf	3,5	;RP0=0, select bank0
  6698     0B8B  1303               	bcf	3,6	;RP1=0, select bank0
  6699     0B8C  00FF               	movwf	btemp+1
  6700     0B8D  120A  158A  2150  120A  158A  	fcall	stringtab
  6701     0B92  3A00               	xorlw	0
  6702     0B93  1D03               	skipz
  6703     0B94  2B96               	goto	u1791
  6704     0B95  2B97               	goto	u1790
  6705     0B96                     u1791:
  6706     0B96  2B6F               	goto	l2619
  6707     0B97                     u1790:
  6708     0B97                     l84:
  6709     0B97  0008               	return
  6710     0B98                     __end_of_chuoi_kytu:
  6711                           
  6712                           	psect	text23
  6713     0AD4                     __ptext23:	
  6714 ;; *************** function _du_lieu *****************
  6715 ;; Defined at:
  6716 ;;		line 44 in file "./mainlcd.h"
  6717 ;; Parameters:    Size  Location     Type
  6718 ;;  a               1    wreg     unsigned char 
  6719 ;; Auto vars:     Size  Location     Type
  6720 ;;  a               1    1[COMMON] unsigned char 
  6721 ;; Return value:  Size  Location     Type
  6722 ;;                  1    wreg      void 
  6723 ;; Registers used:
  6724 ;;		wreg, status,2, status,0
  6725 ;; Tracked objects:
  6726 ;;		On entry : 0/0
  6727 ;;		On exit  : 0/0
  6728 ;;		Unchanged: 0/0
  6729 ;; Data sizes:     COMMON   BANK0   BANK1   BANK3   BANK2
  6730 ;;      Params:         0       0       0       0       0
  6731 ;;      Locals:         1       0       0       0       0
  6732 ;;      Temps:          1       0       0       0       0
  6733 ;;      Totals:         2       0       0       0       0
  6734 ;;Total ram usage:        2 bytes
  6735 ;; Hardware stack levels used: 1
  6736 ;; This function calls:
  6737 ;;		Nothing
  6738 ;; This function is called by:
  6739 ;;		_chuoi_kytu
  6740 ;;		_unlock
  6741 ;;		_lenh_mocua_matkhau
  6742 ;;		_lenh_themthe
  6743 ;;		_lenh_doipass
  6744 ;; This function uses a non-reentrant model
  6745 ;;
  6746                           
  6747     0AD4                     _du_lieu:	
  6748                           ;psect for function _du_lieu
  6749                           
  6750                           
  6751                           ;incstack = 0
  6752                           ; Regs used in _du_lieu: [wreg+status,2+status,0]
  6753                           ;du_lieu@a stored from wreg
  6754     0AD4  00F1               	movwf	du_lieu@a
  6755     0AD5                     l2489:
  6756                           
  6757                           ;./mainlcd.h: 45:     PORTD = a & 0xF0;
  6758     0AD5  0871               	movf	du_lieu@a,w
  6759     0AD6  39F0               	andlw	240
  6760     0AD7  1283               	bcf	3,5	;RP0=0, select bank0
  6761     0AD8  1303               	bcf	3,6	;RP1=0, select bank0
  6762     0AD9  0088               	movwf	8	;volatile
  6763     0ADA                     l2491:
  6764                           
  6765                           ;./mainlcd.h: 46:     PORTDbits.RD0 = 1;
  6766     0ADA  1408               	bsf	8,0	;volatile
  6767     0ADB                     l2493:
  6768                           
  6769                           ;./mainlcd.h: 47:     PORTDbits.RD1 = 0;
  6770     0ADB  1088               	bcf	8,1	;volatile
  6771     0ADC                     l2495:
  6772                           
  6773                           ;./mainlcd.h: 48:     PORTDbits.RD2 = 1;
  6774     0ADC  1508               	bsf	8,2	;volatile
  6775     0ADD                     l2497:
  6776                           
  6777                           ;./mainlcd.h: 49:     PORTDbits.RD2 = 0;
  6778     0ADD  1108               	bcf	8,2	;volatile
  6779     0ADE                     l2499:
  6780                           
  6781                           ;./mainlcd.h: 50:     a = a<<4;
  6782     0ADE  0871               	movf	du_lieu@a,w
  6783     0ADF  00F0               	movwf	??_du_lieu
  6784     0AE0  3003               	movlw	3
  6785     0AE1                     u1645:
  6786     0AE1  1003               	clrc
  6787     0AE2  0DF0               	rlf	??_du_lieu,f
  6788     0AE3  3EFF               	addlw	-1
  6789     0AE4  1D03               	skipz
  6790     0AE5  2AE1               	goto	u1645
  6791     0AE6  1003               	clrc
  6792     0AE7  0D70               	rlf	??_du_lieu,w
  6793     0AE8  00F1               	movwf	du_lieu@a
  6794     0AE9                     l2501:
  6795                           
  6796                           ;./mainlcd.h: 51:     a = a + 0x1;
  6797     0AE9  0871               	movf	du_lieu@a,w
  6798     0AEA  3E01               	addlw	1
  6799     0AEB  00F1               	movwf	du_lieu@a
  6800     0AEC                     l2503:
  6801                           
  6802                           ;./mainlcd.h: 52:     PORTD = a;
  6803     0AEC  0871               	movf	du_lieu@a,w
  6804     0AED  0088               	movwf	8	;volatile
  6805     0AEE                     l2505:
  6806                           
  6807                           ;./mainlcd.h: 53:     PORTDbits.RD2 = 1;
  6808     0AEE  1508               	bsf	8,2	;volatile
  6809     0AEF                     l2507:
  6810                           
  6811                           ;./mainlcd.h: 54:     PORTDbits.RD2 = 0;
  6812     0AEF  1108               	bcf	8,2	;volatile
  6813     0AF0                     l2509:
  6814                           
  6815                           ;./mainlcd.h: 55:     _delay((unsigned long)((40)*(20000000/4000000.0)));
  6816     0AF0  3042               	movlw	66
  6817     0AF1  00F0               	movwf	??_du_lieu
  6818     0AF2                     u3427:
  6819     0AF2  0BF0               	decfsz	??_du_lieu,f
  6820     0AF3  2AF2               	goto	u3427
  6821     0AF4  0000               	nop
  6822     0AF5                     l78:
  6823     0AF5  0008               	return
  6824     0AF6                     __end_of_du_lieu:
  6825                           
  6826                           	psect	text24
  6827     0A4D                     __ptext24:	
  6828 ;; *************** function _khoi_taoLCD *****************
  6829 ;; Defined at:
  6830 ;;		line 38 in file "./mainlcd.h"
  6831 ;; Parameters:    Size  Location     Type
  6832 ;;		None
  6833 ;; Auto vars:     Size  Location     Type
  6834 ;;		None
  6835 ;; Return value:  Size  Location     Type
  6836 ;;                  1    wreg      void 
  6837 ;; Registers used:
  6838 ;;		wreg, status,2, status,0, pclath, cstack
  6839 ;; Tracked objects:
  6840 ;;		On entry : 0/0
  6841 ;;		On exit  : 0/0
  6842 ;;		Unchanged: 0/0
  6843 ;; Data sizes:     COMMON   BANK0   BANK1   BANK3   BANK2
  6844 ;;      Params:         0       0       0       0       0
  6845 ;;      Locals:         0       0       0       0       0
  6846 ;;      Temps:          0       0       0       0       0
  6847 ;;      Totals:         0       0       0       0       0
  6848 ;;Total ram usage:        0 bytes
  6849 ;; Hardware stack levels used: 1
  6850 ;; Hardware stack levels required when called: 1
  6851 ;; This function calls:
  6852 ;;		_gui_Lenh
  6853 ;;		_lenh
  6854 ;; This function is called by:
  6855 ;;		_main
  6856 ;; This function uses a non-reentrant model
  6857 ;;
  6858                           
  6859     0A4D                     _khoi_taoLCD:	
  6860                           ;psect for function _khoi_taoLCD
  6861                           
  6862     0A4D                     l3421:	
  6863                           ;incstack = 0
  6864                           ; Regs used in _khoi_taoLCD: [wreg+status,2+status,0+pclath+cstack]
  6865                           
  6866                           
  6867                           ;./mainlcd.h: 39:     gui_Lenh(0x28);
  6868     0A4D  3028               	movlw	40
  6869     0A4E  120A  158A  21B0  120A  158A  	fcall	_gui_Lenh
  6870                           
  6871                           ;./mainlcd.h: 40:     lenh(0x28);
  6872     0A53  3028               	movlw	40
  6873     0A54  120A  158A  22B4  120A  158A  	fcall	_lenh
  6874                           
  6875                           ;./mainlcd.h: 41:     lenh(0x06);
  6876     0A59  3006               	movlw	6
  6877     0A5A  120A  158A  22B4  120A  158A  	fcall	_lenh
  6878                           
  6879                           ;./mainlcd.h: 42:     lenh(0x0e);
  6880     0A5F  300E               	movlw	14
  6881     0A60  120A  158A  22B4  120A  158A  	fcall	_lenh
  6882     0A65                     l75:
  6883     0A65  0008               	return
  6884     0A66                     __end_of_khoi_taoLCD:
  6885                           
  6886                           	psect	text25
  6887     0AB4                     __ptext25:	
  6888 ;; *************** function _lenh *****************
  6889 ;; Defined at:
  6890 ;;		line 16 in file "./mainlcd.h"
  6891 ;; Parameters:    Size  Location     Type
  6892 ;;  a               1    wreg     unsigned char 
  6893 ;; Auto vars:     Size  Location     Type
  6894 ;;  a               1    1[COMMON] unsigned char 
  6895 ;; Return value:  Size  Location     Type
  6896 ;;                  1    wreg      void 
  6897 ;; Registers used:
  6898 ;;		wreg, status,2, status,0
  6899 ;; Tracked objects:
  6900 ;;		On entry : 0/0
  6901 ;;		On exit  : 0/0
  6902 ;;		Unchanged: 0/0
  6903 ;; Data sizes:     COMMON   BANK0   BANK1   BANK3   BANK2
  6904 ;;      Params:         0       0       0       0       0
  6905 ;;      Locals:         1       0       0       0       0
  6906 ;;      Temps:          1       0       0       0       0
  6907 ;;      Totals:         2       0       0       0       0
  6908 ;;Total ram usage:        2 bytes
  6909 ;; Hardware stack levels used: 1
  6910 ;; This function calls:
  6911 ;;		Nothing
  6912 ;; This function is called by:
  6913 ;;		_khoi_taoLCD
  6914 ;;		_failunlock
  6915 ;;		_unlock
  6916 ;;		_lenh_mocua_quetthe
  6917 ;;		_lenh_mocua_matkhau
  6918 ;;		_lenh_themthe
  6919 ;;		_lenh_xoathe
  6920 ;;		_lenh_doipass
  6921 ;;		_menu
  6922 ;;		_taplenh_menu
  6923 ;; This function uses a non-reentrant model
  6924 ;;
  6925                           
  6926     0AB4                     _lenh:	
  6927                           ;psect for function _lenh
  6928                           
  6929                           
  6930                           ;incstack = 0
  6931                           ; Regs used in _lenh: [wreg+status,2+status,0]
  6932                           ;lenh@a stored from wreg
  6933     0AB4  00F1               	movwf	lenh@a
  6934     0AB5                     l2599:
  6935                           
  6936                           ;./mainlcd.h: 17:     PORTDbits.RD0 = 0;
  6937     0AB5  1283               	bcf	3,5	;RP0=0, select bank0
  6938     0AB6  1303               	bcf	3,6	;RP1=0, select bank0
  6939     0AB7  1008               	bcf	8,0	;volatile
  6940                           
  6941                           ;./mainlcd.h: 18:     PORTDbits.RD1 = 0;
  6942     0AB8  1088               	bcf	8,1	;volatile
  6943     0AB9                     l2601:
  6944                           
  6945                           ;./mainlcd.h: 19:     PORTD = a & 0xF0;
  6946     0AB9  0871               	movf	lenh@a,w
  6947     0ABA  39F0               	andlw	240
  6948     0ABB  0088               	movwf	8	;volatile
  6949     0ABC                     l2603:
  6950                           
  6951                           ;./mainlcd.h: 21:     PORTDbits.RD2 = 1;
  6952     0ABC  1508               	bsf	8,2	;volatile
  6953     0ABD                     l2605:
  6954                           
  6955                           ;./mainlcd.h: 22:     PORTDbits.RD2 = 0;
  6956     0ABD  1108               	bcf	8,2	;volatile
  6957     0ABE                     l2607:
  6958                           
  6959                           ;./mainlcd.h: 23:     a = a<<4;
  6960     0ABE  0871               	movf	lenh@a,w
  6961     0ABF  00F0               	movwf	??_lenh
  6962     0AC0  3003               	movlw	3
  6963     0AC1                     u1785:
  6964     0AC1  1003               	clrc
  6965     0AC2  0DF0               	rlf	??_lenh,f
  6966     0AC3  3EFF               	addlw	-1
  6967     0AC4  1D03               	skipz
  6968     0AC5  2AC1               	goto	u1785
  6969     0AC6  1003               	clrc
  6970     0AC7  0D70               	rlf	??_lenh,w
  6971     0AC8  00F1               	movwf	lenh@a
  6972     0AC9                     l2609:
  6973                           
  6974                           ;./mainlcd.h: 25:     PORTD = a & 0xF0;
  6975     0AC9  0871               	movf	lenh@a,w
  6976     0ACA  39F0               	andlw	240
  6977     0ACB  0088               	movwf	8	;volatile
  6978     0ACC                     l2611:
  6979                           
  6980                           ;./mainlcd.h: 26:     PORTDbits.RD2 = 1;
  6981     0ACC  1508               	bsf	8,2	;volatile
  6982     0ACD                     l2613:
  6983                           
  6984                           ;./mainlcd.h: 27:     PORTDbits.RD2 = 0;
  6985     0ACD  1108               	bcf	8,2	;volatile
  6986     0ACE                     l2615:
  6987                           
  6988                           ;./mainlcd.h: 28:     _delay((unsigned long)((40)*(20000000/4000000.0)));
  6989     0ACE  3042               	movlw	66
  6990     0ACF  00F0               	movwf	??_lenh
  6991     0AD0                     u3437:
  6992     0AD0  0BF0               	decfsz	??_lenh,f
  6993     0AD1  2AD0               	goto	u3437
  6994     0AD2  0000               	nop
  6995     0AD3                     l69:
  6996     0AD3  0008               	return
  6997     0AD4                     __end_of_lenh:
  6998                           
  6999                           	psect	text26
  7000     09B0                     __ptext26:	
  7001 ;; *************** function _gui_Lenh *****************
  7002 ;; Defined at:
  7003 ;;		line 30 in file "./mainlcd.h"
  7004 ;; Parameters:    Size  Location     Type
  7005 ;;  a               1    wreg     unsigned char 
  7006 ;; Auto vars:     Size  Location     Type
  7007 ;;  a               1    1[COMMON] unsigned char 
  7008 ;; Return value:  Size  Location     Type
  7009 ;;                  1    wreg      void 
  7010 ;; Registers used:
  7011 ;;		wreg, status,2
  7012 ;; Tracked objects:
  7013 ;;		On entry : 0/0
  7014 ;;		On exit  : 0/0
  7015 ;;		Unchanged: 0/0
  7016 ;; Data sizes:     COMMON   BANK0   BANK1   BANK3   BANK2
  7017 ;;      Params:         0       0       0       0       0
  7018 ;;      Locals:         1       0       0       0       0
  7019 ;;      Temps:          1       0       0       0       0
  7020 ;;      Totals:         2       0       0       0       0
  7021 ;;Total ram usage:        2 bytes
  7022 ;; Hardware stack levels used: 1
  7023 ;; This function calls:
  7024 ;;		Nothing
  7025 ;; This function is called by:
  7026 ;;		_khoi_taoLCD
  7027 ;; This function uses a non-reentrant model
  7028 ;;
  7029                           
  7030     09B0                     _gui_Lenh:	
  7031                           ;psect for function _gui_Lenh
  7032                           
  7033                           
  7034                           ;incstack = 0
  7035                           ; Regs used in _gui_Lenh: [wreg+status,2]
  7036                           ;gui_Lenh@a stored from wreg
  7037     09B0  00F1               	movwf	gui_Lenh@a
  7038     09B1                     l2981:
  7039                           
  7040                           ;./mainlcd.h: 31:     PORTDbits.RD0 = 0;
  7041     09B1  1283               	bcf	3,5	;RP0=0, select bank0
  7042     09B2  1303               	bcf	3,6	;RP1=0, select bank0
  7043     09B3  1008               	bcf	8,0	;volatile
  7044                           
  7045                           ;./mainlcd.h: 32:     PORTDbits.RD1 = 0;
  7046     09B4  1088               	bcf	8,1	;volatile
  7047     09B5                     l2983:
  7048                           
  7049                           ;./mainlcd.h: 33:     PORTD = a & 0xF0;
  7050     09B5  0871               	movf	gui_Lenh@a,w
  7051     09B6  39F0               	andlw	240
  7052     09B7  0088               	movwf	8	;volatile
  7053     09B8                     l2985:
  7054                           
  7055                           ;./mainlcd.h: 34:     PORTDbits.RD2 = 1;
  7056     09B8  1508               	bsf	8,2	;volatile
  7057     09B9                     l2987:
  7058                           
  7059                           ;./mainlcd.h: 35:     PORTDbits.RD2 = 0;
  7060     09B9  1108               	bcf	8,2	;volatile
  7061     09BA                     l2989:
  7062                           
  7063                           ;./mainlcd.h: 36:     _delay((unsigned long)((40)*(20000000/4000000.0)));
  7064     09BA  3042               	movlw	66
  7065     09BB  00F0               	movwf	??_gui_Lenh
  7066     09BC                     u3447:
  7067     09BC  0BF0               	decfsz	??_gui_Lenh,f
  7068     09BD  29BC               	goto	u3447
  7069     09BE  0000               	nop
  7070     09BF                     l72:
  7071     09BF  0008               	return
  7072     09C0                     __end_of_gui_Lenh:
  7073                           
  7074                           	psect	text27
  7075     0962                     __ptext27:	
  7076 ;; *************** function _khoi_taoKeypad *****************
  7077 ;; Defined at:
  7078 ;;		line 104 in file "./key_pad.h"
  7079 ;; Parameters:    Size  Location     Type
  7080 ;;		None
  7081 ;; Auto vars:     Size  Location     Type
  7082 ;;		None
  7083 ;; Return value:  Size  Location     Type
  7084 ;;                  1    wreg      void 
  7085 ;; Registers used:
  7086 ;;		wreg, status,2, status,0, btemp+1
  7087 ;; Tracked objects:
  7088 ;;		On entry : 0/0
  7089 ;;		On exit  : 0/0
  7090 ;;		Unchanged: 0/0
  7091 ;; Data sizes:     COMMON   BANK0   BANK1   BANK3   BANK2
  7092 ;;      Params:         0       0       0       0       0
  7093 ;;      Locals:         0       0       0       0       0
  7094 ;;      Temps:          0       0       0       0       0
  7095 ;;      Totals:         0       0       0       0       0
  7096 ;;Total ram usage:        0 bytes
  7097 ;; Hardware stack levels used: 1
  7098 ;; This function calls:
  7099 ;;		Nothing
  7100 ;; This function is called by:
  7101 ;;		_main
  7102 ;; This function uses a non-reentrant model
  7103 ;;
  7104                           
  7105     0962                     _khoi_taoKeypad:	
  7106                           ;psect for function _khoi_taoKeypad
  7107                           
  7108     0962                     l3423:	
  7109                           ;incstack = 0
  7110                           ; Regs used in _khoi_taoKeypad: [wreg+status,2+status,0+btemp+1]
  7111                           
  7112                           
  7113                           ;./key_pad.h: 106:             PORTB = 0x00;
  7114     0962  1283               	bcf	3,5	;RP0=0, select bank0
  7115     0963  1303               	bcf	3,6	;RP1=0, select bank0
  7116     0964  0186               	clrf	6	;volatile
  7117     0965                     l3425:
  7118                           
  7119                           ;./key_pad.h: 107:             TRISB = 0xF0;
  7120     0965  30F0               	movlw	240
  7121     0966  1683               	bsf	3,5	;RP0=1, select bank1
  7122     0967  1303               	bcf	3,6	;RP1=0, select bank1
  7123     0968  0086               	movwf	6	;volatile
  7124     0969                     l3427:
  7125                           
  7126                           ;./key_pad.h: 108:             OPTION_REG &= 0x7F;
  7127     0969  307F               	movlw	127
  7128     096A  00FF               	movwf	btemp+1
  7129     096B  087F               	movf	btemp+1,w
  7130     096C  0581               	andwf	1,f	;volatile
  7131     096D                     l242:
  7132     096D  0008               	return
  7133     096E                     __end_of_khoi_taoKeypad:
  7134                           
  7135                           	psect	text28
  7136     0986                     __ptext28:	
  7137 ;; *************** function _Soft_SPI_Init *****************
  7138 ;; Defined at:
  7139 ;;		line 64 in file "./soft_spi.h"
  7140 ;; Parameters:    Size  Location     Type
  7141 ;;		None
  7142 ;; Auto vars:     Size  Location     Type
  7143 ;;		None
  7144 ;; Return value:  Size  Location     Type
  7145 ;;                  1    wreg      void 
  7146 ;; Registers used:
  7147 ;;		None
  7148 ;; Tracked objects:
  7149 ;;		On entry : 0/0
  7150 ;;		On exit  : 0/0
  7151 ;;		Unchanged: 0/0
  7152 ;; Data sizes:     COMMON   BANK0   BANK1   BANK3   BANK2
  7153 ;;      Params:         0       0       0       0       0
  7154 ;;      Locals:         0       0       0       0       0
  7155 ;;      Temps:          0       0       0       0       0
  7156 ;;      Totals:         0       0       0       0       0
  7157 ;;Total ram usage:        0 bytes
  7158 ;; Hardware stack levels used: 1
  7159 ;; This function calls:
  7160 ;;		Nothing
  7161 ;; This function is called by:
  7162 ;;		_main
  7163 ;; This function uses a non-reentrant model
  7164 ;;
  7165                           
  7166     0986                     _Soft_SPI_Init:	
  7167                           ;psect for function _Soft_SPI_Init
  7168                           
  7169     0986                     l3429:	
  7170                           ;incstack = 0
  7171                           ; Regs used in _Soft_SPI_Init: []
  7172                           
  7173                           
  7174                           ;./soft_spi.h: 67:    TRISCbits.TRISC2=0;
  7175     0986  1683               	bsf	3,5	;RP0=1, select bank1
  7176     0987  1303               	bcf	3,6	;RP1=0, select bank1
  7177     0988  1107               	bcf	7,2	;volatile
  7178                           
  7179                           ;./soft_spi.h: 68:    TRISCbits.TRISC1=0;
  7180     0989  1087               	bcf	7,1	;volatile
  7181                           
  7182                           ;./soft_spi.h: 69:    TRISCbits.TRISC3=0;
  7183     098A  1187               	bcf	7,3	;volatile
  7184                           
  7185                           ;./soft_spi.h: 70:    TRISCbits.TRISC3=1;
  7186     098B  1587               	bsf	7,3	;volatile
  7187                           
  7188                           ;./soft_spi.h: 72:   RC1=0;
  7189     098C  1283               	bcf	3,5	;RP0=0, select bank0
  7190     098D  1303               	bcf	3,6	;RP1=0, select bank0
  7191     098E  1087               	bcf	7,1	;volatile
  7192                           
  7193                           ;./soft_spi.h: 73:   RC0=0;
  7194     098F  1007               	bcf	7,0	;volatile
  7195                           
  7196                           ;./soft_spi.h: 74:   RC2=0;
  7197     0990  1107               	bcf	7,2	;volatile
  7198                           
  7199                           ;./soft_spi.h: 75:   RC0 = 0;
  7200     0991  1007               	bcf	7,0	;volatile
  7201     0992                     l245:
  7202     0992  0008               	return
  7203     0993                     __end_of_Soft_SPI_Init:
  7204                           
  7205                           	psect	text29
  7206     0C0D                     __ptext29:	
  7207 ;; *************** function _MFRC522_Init *****************
  7208 ;; Defined at:
  7209 ;;		line 151 in file "./RC522.h"
  7210 ;; Parameters:    Size  Location     Type
  7211 ;;		None
  7212 ;; Auto vars:     Size  Location     Type
  7213 ;;		None
  7214 ;; Return value:  Size  Location     Type
  7215 ;;                  1    wreg      void 
  7216 ;; Registers used:
  7217 ;;		wreg, status,2, status,0, btemp+1, pclath, cstack
  7218 ;; Tracked objects:
  7219 ;;		On entry : 0/0
  7220 ;;		On exit  : 0/0
  7221 ;;		Unchanged: 0/0
  7222 ;; Data sizes:     COMMON   BANK0   BANK1   BANK3   BANK2
  7223 ;;      Params:         0       0       0       0       0
  7224 ;;      Locals:         0       0       0       0       0
  7225 ;;      Temps:          0       0       0       0       0
  7226 ;;      Totals:         0       0       0       0       0
  7227 ;;Total ram usage:        0 bytes
  7228 ;; Hardware stack levels used: 1
  7229 ;; Hardware stack levels required when called: 4
  7230 ;; This function calls:
  7231 ;;		_MFRC522_AntennaOff
  7232 ;;		_MFRC522_AntennaOn
  7233 ;;		_MFRC522_Reset
  7234 ;;		_MFRC522_Wr
  7235 ;; This function is called by:
  7236 ;;		_main
  7237 ;; This function uses a non-reentrant model
  7238 ;;
  7239                           
  7240     0C0D                     _MFRC522_Init:	
  7241                           ;psect for function _MFRC522_Init
  7242                           
  7243     0C0D                     l3431:	
  7244                           ;incstack = 0
  7245                           ; Regs used in _MFRC522_Init: [wreg+status,2+status,0+btemp+1+pclath+cstack]
  7246                           
  7247                           
  7248                           ;./RC522.h: 153:      TRISCbits.TRISC0 = 0;
  7249     0C0D  1683               	bsf	3,5	;RP0=1, select bank1
  7250     0C0E  1303               	bcf	3,6	;RP1=0, select bank1
  7251     0C0F  1007               	bcf	7,0	;volatile
  7252                           
  7253                           ;./RC522.h: 154:      TRISCbits.TRISC4 = 0;
  7254     0C10  1207               	bcf	7,4	;volatile
  7255                           
  7256                           ;./RC522.h: 155:      RC0 = 1;
  7257     0C11  1283               	bcf	3,5	;RP0=0, select bank0
  7258     0C12  1303               	bcf	3,6	;RP1=0, select bank0
  7259     0C13  1407               	bsf	7,0	;volatile
  7260                           
  7261                           ;./RC522.h: 156:      RC4 = 1;
  7262     0C14  1607               	bsf	7,4	;volatile
  7263     0C15                     l3433:
  7264                           
  7265                           ;./RC522.h: 158:      MFRC522_Reset();
  7266     0C15  120A  118A  2003  120A  158A  	fcall	_MFRC522_Reset
  7267                           
  7268                           ;./RC522.h: 160:      MFRC522_Wr( 0x2A, 0x8D );
  7269     0C1A  308D               	movlw	141
  7270     0C1B  00F6               	movwf	MFRC522_Wr@value
  7271     0C1C  302A               	movlw	42
  7272     0C1D  120A  158A  221D  120A  158A  	fcall	_MFRC522_Wr
  7273                           
  7274                           ;./RC522.h: 161:      MFRC522_Wr( 0x2B, 0x3E );
  7275     0C22  303E               	movlw	62
  7276     0C23  00F6               	movwf	MFRC522_Wr@value
  7277     0C24  302B               	movlw	43
  7278     0C25  120A  158A  221D  120A  158A  	fcall	_MFRC522_Wr
  7279                           
  7280                           ;./RC522.h: 162:      MFRC522_Wr( 0x2D, 30 );
  7281     0C2A  301E               	movlw	30
  7282     0C2B  00F6               	movwf	MFRC522_Wr@value
  7283     0C2C  302D               	movlw	45
  7284     0C2D  120A  158A  221D  120A  158A  	fcall	_MFRC522_Wr
  7285                           
  7286                           ;./RC522.h: 163:      MFRC522_Wr( 0x2C, 0 );
  7287     0C32  01F6               	clrf	MFRC522_Wr@value
  7288     0C33  302C               	movlw	44
  7289     0C34  120A  158A  221D  120A  158A  	fcall	_MFRC522_Wr
  7290                           
  7291                           ;./RC522.h: 165:      MFRC522_Wr( 0x15, 0x40 );
  7292     0C39  3040               	movlw	64
  7293     0C3A  00F6               	movwf	MFRC522_Wr@value
  7294     0C3B  3015               	movlw	21
  7295     0C3C  120A  158A  221D  120A  158A  	fcall	_MFRC522_Wr
  7296                           
  7297                           ;./RC522.h: 166:      MFRC522_Wr( 0x11, 0x3D );
  7298     0C41  303D               	movlw	61
  7299     0C42  00F6               	movwf	MFRC522_Wr@value
  7300     0C43  3011               	movlw	17
  7301     0C44  120A  158A  221D  120A  158A  	fcall	_MFRC522_Wr
  7302                           
  7303                           ;./RC522.h: 171:      MFRC522_AntennaOff();
  7304     0C49  160A  118A  27EE  120A  158A  	fcall	_MFRC522_AntennaOff
  7305                           
  7306                           ;./RC522.h: 172:      MFRC522_AntennaOn();
  7307     0C4E  160A  118A  27F7  120A  158A  	fcall	_MFRC522_AntennaOn
  7308     0C53                     l282:
  7309     0C53  0008               	return
  7310     0C54                     __end_of_MFRC522_Init:
  7311                           
  7312                           	psect	text30
  7313     0003                     __ptext30:	
  7314 ;; *************** function _MFRC522_Reset *****************
  7315 ;; Defined at:
  7316 ;;		line 139 in file "./RC522.h"
  7317 ;; Parameters:    Size  Location     Type
  7318 ;;		None
  7319 ;; Auto vars:     Size  Location     Type
  7320 ;;		None
  7321 ;; Return value:  Size  Location     Type
  7322 ;;                  1    wreg      void 
  7323 ;; Registers used:
  7324 ;;		wreg, status,2, status,0, btemp+1, pclath, cstack
  7325 ;; Tracked objects:
  7326 ;;		On entry : 0/0
  7327 ;;		On exit  : 0/0
  7328 ;;		Unchanged: 0/0
  7329 ;; Data sizes:     COMMON   BANK0   BANK1   BANK3   BANK2
  7330 ;;      Params:         0       0       0       0       0
  7331 ;;      Locals:         0       0       0       0       0
  7332 ;;      Temps:          0       0       0       0       0
  7333 ;;      Totals:         0       0       0       0       0
  7334 ;;Total ram usage:        0 bytes
  7335 ;; Hardware stack levels used: 1
  7336 ;; Hardware stack levels required when called: 2
  7337 ;; This function calls:
  7338 ;;		_MFRC522_Wr
  7339 ;; This function is called by:
  7340 ;;		_MFRC522_Init
  7341 ;; This function uses a non-reentrant model
  7342 ;;
  7343                           
  7344     0003                     _MFRC522_Reset:	
  7345                           ;psect for function _MFRC522_Reset
  7346                           
  7347     0003                     l2991:	
  7348                           ;incstack = 0
  7349                           ; Regs used in _MFRC522_Reset: [wreg+status,2+status,0+btemp+1+pclath+cstack]
  7350                           
  7351                           
  7352                           ;./RC522.h: 141:         MFRC522_Wr( 0x01, 0x0F );
  7353     0003  300F               	movlw	15
  7354     0004  00F6               	movwf	MFRC522_Wr@value
  7355     0005  3001               	movlw	1
  7356     0006  120A  158A  221D  120A  118A  	fcall	_MFRC522_Wr
  7357     000B                     l273:
  7358     000B  0008               	return
  7359     000C                     __end_of_MFRC522_Reset:
  7360                           
  7361                           	psect	text31
  7362     17F7                     __ptext31:	
  7363 ;; *************** function _MFRC522_AntennaOn *****************
  7364 ;; Defined at:
  7365 ;;		line 143 in file "./RC522.h"
  7366 ;; Parameters:    Size  Location     Type
  7367 ;;		None
  7368 ;; Auto vars:     Size  Location     Type
  7369 ;;		None
  7370 ;; Return value:  Size  Location     Type
  7371 ;;                  1    wreg      void 
  7372 ;; Registers used:
  7373 ;;		wreg, status,2, status,0, btemp+1, pclath, cstack
  7374 ;; Tracked objects:
  7375 ;;		On entry : 0/0
  7376 ;;		On exit  : 0/0
  7377 ;;		Unchanged: 0/0
  7378 ;; Data sizes:     COMMON   BANK0   BANK1   BANK3   BANK2
  7379 ;;      Params:         0       0       0       0       0
  7380 ;;      Locals:         0       0       0       0       0
  7381 ;;      Temps:          0       0       0       0       0
  7382 ;;      Totals:         0       0       0       0       0
  7383 ;;Total ram usage:        0 bytes
  7384 ;; Hardware stack levels used: 1
  7385 ;; Hardware stack levels required when called: 3
  7386 ;; This function calls:
  7387 ;;		_MFRC522_Set_Bit
  7388 ;; This function is called by:
  7389 ;;		_MFRC522_Init
  7390 ;; This function uses a non-reentrant model
  7391 ;;
  7392                           
  7393     17F7                     _MFRC522_AntennaOn:	
  7394                           ;psect for function _MFRC522_AntennaOn
  7395                           
  7396     17F7                     l2993:	
  7397                           ;incstack = 0
  7398                           ; Regs used in _MFRC522_AntennaOn: [wreg+status,2+status,0+btemp+1+pclath+cstack]
  7399                           
  7400                           
  7401                           ;./RC522.h: 145:  MFRC522_Set_Bit( 0x14, 0x03 );
  7402     17F7  3003               	movlw	3
  7403     17F8  00F9               	movwf	MFRC522_Set_Bit@mask
  7404     17F9  3014               	movlw	20
  7405     17FA  120A  158A  21A0  160A  118A  	fcall	_MFRC522_Set_Bit
  7406     17FF                     l276:
  7407     17FF  0008               	return
  7408     1800                     __end_of_MFRC522_AntennaOn:
  7409                           
  7410                           	psect	text32
  7411     09A0                     __ptext32:	
  7412 ;; *************** function _MFRC522_Set_Bit *****************
  7413 ;; Defined at:
  7414 ;;		line 135 in file "./RC522.h"
  7415 ;; Parameters:    Size  Location     Type
  7416 ;;  addr            1    wreg     unsigned char 
  7417 ;;  mask            1    9[COMMON] unsigned char 
  7418 ;; Auto vars:     Size  Location     Type
  7419 ;;  addr            1   10[COMMON] unsigned char 
  7420 ;; Return value:  Size  Location     Type
  7421 ;;                  1    wreg      void 
  7422 ;; Registers used:
  7423 ;;		wreg, status,2, status,0, btemp+1, pclath, cstack
  7424 ;; Tracked objects:
  7425 ;;		On entry : 0/0
  7426 ;;		On exit  : 0/0
  7427 ;;		Unchanged: 0/0
  7428 ;; Data sizes:     COMMON   BANK0   BANK1   BANK3   BANK2
  7429 ;;      Params:         1       0       0       0       0
  7430 ;;      Locals:         1       0       0       0       0
  7431 ;;      Temps:          0       0       0       0       0
  7432 ;;      Totals:         2       0       0       0       0
  7433 ;;Total ram usage:        2 bytes
  7434 ;; Hardware stack levels used: 1
  7435 ;; Hardware stack levels required when called: 2
  7436 ;; This function calls:
  7437 ;;		_MFRC522_Rd
  7438 ;;		_MFRC522_Wr
  7439 ;; This function is called by:
  7440 ;;		_MFRC522_AntennaOn
  7441 ;;		_MFRC522_ToCard
  7442 ;;		_MFRC522_CRC
  7443 ;; This function uses a non-reentrant model
  7444 ;;
  7445                           
  7446     09A0                     _MFRC522_Set_Bit:	
  7447                           ;psect for function _MFRC522_Set_Bit
  7448                           
  7449                           
  7450                           ;incstack = 0
  7451                           ; Regs used in _MFRC522_Set_Bit: [wreg+status,2+status,0+btemp+1+pclath+cstack]
  7452                           ;MFRC522_Set_Bit@addr stored from wreg
  7453     09A0  00FA               	movwf	MFRC522_Set_Bit@addr
  7454     09A1                     l2487:
  7455                           
  7456                           ;./RC522.h: 135: static void MFRC522_Set_Bit( char addr, char mask );./RC522.h: 136: {;.
      +                          /RC522.h: 137:      MFRC522_Wr( addr, MFRC522_Rd( addr ) | mask );
  7457     09A1  087A               	movf	MFRC522_Set_Bit@addr,w
  7458     09A2  120A  158A  2234  120A  158A  	fcall	_MFRC522_Rd
  7459     09A7  0479               	iorwf	MFRC522_Set_Bit@mask,w
  7460     09A8  00F6               	movwf	MFRC522_Wr@value
  7461     09A9  087A               	movf	MFRC522_Set_Bit@addr,w
  7462     09AA  120A  158A  221D  120A  158A  	fcall	_MFRC522_Wr
  7463     09AF                     l270:
  7464     09AF  0008               	return
  7465     09B0                     __end_of_MFRC522_Set_Bit:
  7466                           
  7467                           	psect	text33
  7468     17EE                     __ptext33:	
  7469 ;; *************** function _MFRC522_AntennaOff *****************
  7470 ;; Defined at:
  7471 ;;		line 147 in file "./RC522.h"
  7472 ;; Parameters:    Size  Location     Type
  7473 ;;		None
  7474 ;; Auto vars:     Size  Location     Type
  7475 ;;		None
  7476 ;; Return value:  Size  Location     Type
  7477 ;;                  1    wreg      void 
  7478 ;; Registers used:
  7479 ;;		wreg, status,2, status,0, btemp+1, pclath, cstack
  7480 ;; Tracked objects:
  7481 ;;		On entry : 0/0
  7482 ;;		On exit  : 0/0
  7483 ;;		Unchanged: 0/0
  7484 ;; Data sizes:     COMMON   BANK0   BANK1   BANK3   BANK2
  7485 ;;      Params:         0       0       0       0       0
  7486 ;;      Locals:         0       0       0       0       0
  7487 ;;      Temps:          0       0       0       0       0
  7488 ;;      Totals:         0       0       0       0       0
  7489 ;;Total ram usage:        0 bytes
  7490 ;; Hardware stack levels used: 1
  7491 ;; Hardware stack levels required when called: 3
  7492 ;; This function calls:
  7493 ;;		_MFRC522_Clear_Bit
  7494 ;; This function is called by:
  7495 ;;		_MFRC522_Init
  7496 ;; This function uses a non-reentrant model
  7497 ;;
  7498                           
  7499     17EE                     _MFRC522_AntennaOff:	
  7500                           ;psect for function _MFRC522_AntennaOff
  7501                           
  7502     17EE                     l2995:	
  7503                           ;incstack = 0
  7504                           ; Regs used in _MFRC522_AntennaOff: [wreg+status,2+status,0+btemp+1+pclath+cstack]
  7505                           
  7506                           
  7507                           ;./RC522.h: 149:  MFRC522_Clear_Bit( 0x14, 0x03 );
  7508     17EE  3003               	movlw	3
  7509     17EF  00F9               	movwf	MFRC522_Clear_Bit@mask
  7510     17F0  3014               	movlw	20
  7511     17F1  120A  158A  21D1  160A  118A  	fcall	_MFRC522_Clear_Bit
  7512     17F6                     l279:
  7513     17F6  0008               	return
  7514     17F7                     __end_of_MFRC522_AntennaOff:
  7515                           
  7516                           	psect	text34
  7517     09D1                     __ptext34:	
  7518 ;; *************** function _MFRC522_Clear_Bit *****************
  7519 ;; Defined at:
  7520 ;;		line 131 in file "./RC522.h"
  7521 ;; Parameters:    Size  Location     Type
  7522 ;;  addr            1    wreg     unsigned char 
  7523 ;;  mask            1    9[COMMON] unsigned char 
  7524 ;; Auto vars:     Size  Location     Type
  7525 ;;  addr            1   11[COMMON] unsigned char 
  7526 ;; Return value:  Size  Location     Type
  7527 ;;                  1    wreg      void 
  7528 ;; Registers used:
  7529 ;;		wreg, status,2, status,0, btemp+1, pclath, cstack
  7530 ;; Tracked objects:
  7531 ;;		On entry : 0/0
  7532 ;;		On exit  : 0/0
  7533 ;;		Unchanged: 0/0
  7534 ;; Data sizes:     COMMON   BANK0   BANK1   BANK3   BANK2
  7535 ;;      Params:         1       0       0       0       0
  7536 ;;      Locals:         1       0       0       0       0
  7537 ;;      Temps:          1       0       0       0       0
  7538 ;;      Totals:         3       0       0       0       0
  7539 ;;Total ram usage:        3 bytes
  7540 ;; Hardware stack levels used: 1
  7541 ;; Hardware stack levels required when called: 2
  7542 ;; This function calls:
  7543 ;;		_MFRC522_Rd
  7544 ;;		_MFRC522_Wr
  7545 ;; This function is called by:
  7546 ;;		_MFRC522_AntennaOff
  7547 ;;		_MFRC522_ToCard
  7548 ;;		_MFRC522_AntiColl
  7549 ;;		_MFRC522_CRC
  7550 ;;		_MFRC522_Halt
  7551 ;; This function uses a non-reentrant model
  7552 ;;
  7553                           
  7554     09D1                     _MFRC522_Clear_Bit:	
  7555                           ;psect for function _MFRC522_Clear_Bit
  7556                           
  7557                           
  7558                           ;incstack = 0
  7559                           ; Regs used in _MFRC522_Clear_Bit: [wreg+status,2+status,0+btemp+1+pclath+cstack]
  7560                           ;MFRC522_Clear_Bit@addr stored from wreg
  7561     09D1  00FB               	movwf	MFRC522_Clear_Bit@addr
  7562     09D2                     l2485:
  7563                           
  7564                           ;./RC522.h: 131: static void MFRC522_Clear_Bit( char addr, char mask );./RC522.h: 132: {
      +                          ;./RC522.h: 133:      MFRC522_Wr( addr, MFRC522_Rd( addr ) & (~mask) );
  7565     09D2  0979               	comf	MFRC522_Clear_Bit@mask,w
  7566     09D3  00FA               	movwf	??_MFRC522_Clear_Bit
  7567     09D4  087B               	movf	MFRC522_Clear_Bit@addr,w
  7568     09D5  120A  158A  2234  120A  158A  	fcall	_MFRC522_Rd
  7569     09DA  057A               	andwf	??_MFRC522_Clear_Bit,w
  7570     09DB  00F6               	movwf	MFRC522_Wr@value
  7571     09DC  087B               	movf	MFRC522_Clear_Bit@addr,w
  7572     09DD  120A  158A  221D  120A  158A  	fcall	_MFRC522_Wr
  7573     09E2                     l267:
  7574     09E2  0008               	return
  7575     09E3                     __end_of_MFRC522_Clear_Bit:
  7576                           
  7577                           	psect	text35
  7578     0A1D                     __ptext35:	
  7579 ;; *************** function _MFRC522_Wr *****************
  7580 ;; Defined at:
  7581 ;;		line 115 in file "./RC522.h"
  7582 ;; Parameters:    Size  Location     Type
  7583 ;;  addr            1    wreg     unsigned char 
  7584 ;;  value           1    6[COMMON] unsigned char 
  7585 ;; Auto vars:     Size  Location     Type
  7586 ;;  addr            1    8[COMMON] unsigned char 
  7587 ;; Return value:  Size  Location     Type
  7588 ;;                  1    wreg      void 
  7589 ;; Registers used:
  7590 ;;		wreg, status,2, status,0, btemp+1, pclath, cstack
  7591 ;; Tracked objects:
  7592 ;;		On entry : 0/0
  7593 ;;		On exit  : 0/0
  7594 ;;		Unchanged: 0/0
  7595 ;; Data sizes:     COMMON   BANK0   BANK1   BANK3   BANK2
  7596 ;;      Params:         1       0       0       0       0
  7597 ;;      Locals:         1       0       0       0       0
  7598 ;;      Temps:          1       0       0       0       0
  7599 ;;      Totals:         3       0       0       0       0
  7600 ;;Total ram usage:        3 bytes
  7601 ;; Hardware stack levels used: 1
  7602 ;; Hardware stack levels required when called: 1
  7603 ;; This function calls:
  7604 ;;		_Soft_SPI_Write
  7605 ;; This function is called by:
  7606 ;;		_MFRC522_Clear_Bit
  7607 ;;		_MFRC522_Set_Bit
  7608 ;;		_MFRC522_Reset
  7609 ;;		_MFRC522_Init
  7610 ;;		_MFRC522_ToCard
  7611 ;;		_MFRC522_Request
  7612 ;;		_MFRC522_AntiColl
  7613 ;;		_MFRC522_CRC
  7614 ;; This function uses a non-reentrant model
  7615 ;;
  7616                           
  7617     0A1D                     _MFRC522_Wr:	
  7618                           ;psect for function _MFRC522_Wr
  7619                           
  7620                           
  7621                           ;incstack = 0
  7622                           ; Regs used in _MFRC522_Wr: [wreg+status,2+status,0+btemp+1+pclath+cstack]
  7623                           ;MFRC522_Wr@addr stored from wreg
  7624     0A1D  00F8               	movwf	MFRC522_Wr@addr
  7625     0A1E                     l2469:
  7626                           
  7627                           ;./RC522.h: 115: static void MFRC522_Wr( char addr, char value );./RC522.h: 116: {;./RC5
      +                          22.h: 117:         RC0 = 0;
  7628     0A1E  1283               	bcf	3,5	;RP0=0, select bank0
  7629     0A1F  1303               	bcf	3,6	;RP1=0, select bank0
  7630     0A20  1007               	bcf	7,0	;volatile
  7631     0A21                     l2471:
  7632                           
  7633                           ;./RC522.h: 118:         Soft_SPI_Write( ( addr << 1 ) & 0x7E );
  7634     0A21  0878               	movf	MFRC522_Wr@addr,w
  7635     0A22  00F7               	movwf	??_MFRC522_Wr
  7636     0A23  0777               	addwf	??_MFRC522_Wr,w
  7637     0A24  397E               	andlw	126
  7638     0A25  120A  158A  2344  120A  158A  	fcall	_Soft_SPI_Write
  7639                           
  7640                           ;./RC522.h: 119:         Soft_SPI_Write( value );
  7641     0A2A  0876               	movf	MFRC522_Wr@value,w
  7642     0A2B  120A  158A  2344  120A  158A  	fcall	_Soft_SPI_Write
  7643     0A30                     l2473:
  7644                           
  7645                           ;./RC522.h: 120:         RC0 = 1;
  7646     0A30  1283               	bcf	3,5	;RP0=0, select bank0
  7647     0A31  1303               	bcf	3,6	;RP1=0, select bank0
  7648     0A32  1407               	bsf	7,0	;volatile
  7649     0A33                     l261:
  7650     0A33  0008               	return
  7651     0A34                     __end_of_MFRC522_Wr:
  7652                           
  7653                           	psect	text36
  7654     0A34                     __ptext36:	
  7655 ;; *************** function _MFRC522_Rd *****************
  7656 ;; Defined at:
  7657 ;;		line 122 in file "./RC522.h"
  7658 ;; Parameters:    Size  Location     Type
  7659 ;;  addr            1    wreg     unsigned char 
  7660 ;; Auto vars:     Size  Location     Type
  7661 ;;  addr            1    4[COMMON] unsigned char 
  7662 ;;  value           1    5[COMMON] unsigned char 
  7663 ;; Return value:  Size  Location     Type
  7664 ;;                  1    wreg      unsigned char 
  7665 ;; Registers used:
  7666 ;;		wreg, status,2, status,0, btemp+1, pclath, cstack
  7667 ;; Tracked objects:
  7668 ;;		On entry : 0/0
  7669 ;;		On exit  : 0/0
  7670 ;;		Unchanged: 0/0
  7671 ;; Data sizes:     COMMON   BANK0   BANK1   BANK3   BANK2
  7672 ;;      Params:         0       0       0       0       0
  7673 ;;      Locals:         2       0       0       0       0
  7674 ;;      Temps:          1       0       0       0       0
  7675 ;;      Totals:         3       0       0       0       0
  7676 ;;Total ram usage:        3 bytes
  7677 ;; Hardware stack levels used: 1
  7678 ;; Hardware stack levels required when called: 1
  7679 ;; This function calls:
  7680 ;;		_Soft_SPI_Read
  7681 ;;		_Soft_SPI_Write
  7682 ;; This function is called by:
  7683 ;;		_MFRC522_Clear_Bit
  7684 ;;		_MFRC522_Set_Bit
  7685 ;;		_MFRC522_ToCard
  7686 ;;		_MFRC522_CRC
  7687 ;;		_MFRC522_Auth
  7688 ;; This function uses a non-reentrant model
  7689 ;;
  7690                           
  7691     0A34                     _MFRC522_Rd:	
  7692                           ;psect for function _MFRC522_Rd
  7693                           
  7694                           
  7695                           ;incstack = 0
  7696                           ; Regs used in _MFRC522_Rd: [wreg+status,2+status,0+btemp+1+pclath+cstack]
  7697                           ;MFRC522_Rd@addr stored from wreg
  7698     0A34  00F4               	movwf	MFRC522_Rd@addr
  7699     0A35                     l2475:
  7700                           
  7701                           ;./RC522.h: 122: unsigned char MFRC522_Rd( char addr );./RC522.h: 123: {;./RC522.h: 124:
      +                           char value;;./RC522.h: 125:         RC0 = 0;
  7702     0A35  1283               	bcf	3,5	;RP0=0, select bank0
  7703     0A36  1303               	bcf	3,6	;RP1=0, select bank0
  7704     0A37  1007               	bcf	7,0	;volatile
  7705     0A38                     l2477:
  7706                           
  7707                           ;./RC522.h: 126:         Soft_SPI_Write( (( addr << 1 ) & 0x7E) | 0x80 );
  7708     0A38  0874               	movf	MFRC522_Rd@addr,w
  7709     0A39  00F3               	movwf	??_MFRC522_Rd
  7710     0A3A  0773               	addwf	??_MFRC522_Rd,w
  7711     0A3B  397E               	andlw	126
  7712     0A3C  3880               	iorlw	128
  7713     0A3D  120A  158A  2344  120A  158A  	fcall	_Soft_SPI_Write
  7714                           
  7715                           ;./RC522.h: 127:         value = Soft_SPI_Read();
  7716     0A42  120A  158A  22F6  120A  158A  	fcall	_Soft_SPI_Read
  7717     0A47  00F5               	movwf	MFRC522_Rd@value
  7718     0A48                     l2479:
  7719                           
  7720                           ;./RC522.h: 128:         RC0 = 1;
  7721     0A48  1283               	bcf	3,5	;RP0=0, select bank0
  7722     0A49  1303               	bcf	3,6	;RP1=0, select bank0
  7723     0A4A  1407               	bsf	7,0	;volatile
  7724     0A4B                     l2481:
  7725                           
  7726                           ;./RC522.h: 129:         return value;
  7727     0A4B  0875               	movf	MFRC522_Rd@value,w
  7728     0A4C                     l264:
  7729     0A4C  0008               	return
  7730     0A4D                     __end_of_MFRC522_Rd:
  7731                           
  7732                           	psect	text37
  7733     0B44                     __ptext37:	
  7734 ;; *************** function _Soft_SPI_Write *****************
  7735 ;; Defined at:
  7736 ;;		line 101 in file "./soft_spi.h"
  7737 ;; Parameters:    Size  Location     Type
  7738 ;;  dato_           1    wreg     unsigned char 
  7739 ;; Auto vars:     Size  Location     Type
  7740 ;;  dato_           1    1[COMMON] unsigned char 
  7741 ;;  cont_s          1    2[COMMON] unsigned char 
  7742 ;; Return value:  Size  Location     Type
  7743 ;;                  1    wreg      void 
  7744 ;; Registers used:
  7745 ;;		wreg, status,2, status,0, btemp+1
  7746 ;; Tracked objects:
  7747 ;;		On entry : 0/0
  7748 ;;		On exit  : 0/0
  7749 ;;		Unchanged: 0/0
  7750 ;; Data sizes:     COMMON   BANK0   BANK1   BANK3   BANK2
  7751 ;;      Params:         0       0       0       0       0
  7752 ;;      Locals:         2       0       0       0       0
  7753 ;;      Temps:          1       0       0       0       0
  7754 ;;      Totals:         3       0       0       0       0
  7755 ;;Total ram usage:        3 bytes
  7756 ;; Hardware stack levels used: 1
  7757 ;; This function calls:
  7758 ;;		Nothing
  7759 ;; This function is called by:
  7760 ;;		_MFRC522_Wr
  7761 ;;		_MFRC522_Rd
  7762 ;; This function uses a non-reentrant model
  7763 ;;
  7764                           
  7765     0B44                     _Soft_SPI_Write:	
  7766                           ;psect for function _Soft_SPI_Write
  7767                           
  7768                           
  7769                           ;incstack = 0
  7770                           ; Regs used in _Soft_SPI_Write: [wreg+status,2+status,0+btemp+1]
  7771                           ;Soft_SPI_Write@dato_ stored from wreg
  7772     0B44  00F1               	movwf	Soft_SPI_Write@dato_
  7773     0B45                     l2451:
  7774                           
  7775                           ;./soft_spi.h: 101: void Soft_SPI_Write(unsigned char dato_);./soft_spi.h: 102: {;./soft
      +                          _spi.h: 103:   unsigned char cont_s= 0;
  7776     0B45  01F2               	clrf	Soft_SPI_Write@cont_s
  7777                           
  7778                           ;./soft_spi.h: 105:   for(cont_s = 0;cont_s < 8; cont_s++)
  7779     0B46  01F2               	clrf	Soft_SPI_Write@cont_s
  7780     0B47                     l254:
  7781                           
  7782                           ;./soft_spi.h: 106:   {;./soft_spi.h: 108:     if((dato_ & 0x80) != 0) RC2 = 1;
  7783     0B47  1FF1               	btfss	Soft_SPI_Write@dato_,7
  7784     0B48  2B4A               	goto	u1621
  7785     0B49  2B4B               	goto	u1620
  7786     0B4A                     u1621:
  7787     0B4A  2B4F               	goto	l256
  7788     0B4B                     u1620:
  7789     0B4B                     l2457:
  7790     0B4B  1283               	bcf	3,5	;RP0=0, select bank0
  7791     0B4C  1303               	bcf	3,6	;RP1=0, select bank0
  7792     0B4D  1507               	bsf	7,2	;volatile
  7793     0B4E  2B52               	goto	l2459
  7794     0B4F                     l256:	
  7795                           ;./soft_spi.h: 109:     else RC2 = 0;
  7796                           
  7797     0B4F  1283               	bcf	3,5	;RP0=0, select bank0
  7798     0B50  1303               	bcf	3,6	;RP1=0, select bank0
  7799     0B51  1107               	bcf	7,2	;volatile
  7800     0B52                     l2459:
  7801                           
  7802                           ;./soft_spi.h: 110:     dato_ <<= 1;
  7803     0B52  1003               	clrc
  7804     0B53  0DF1               	rlf	Soft_SPI_Write@dato_,f
  7805     0B54                     l2461:
  7806                           
  7807                           ;./soft_spi.h: 112:     RC1 = 1;
  7808     0B54  1487               	bsf	7,1	;volatile
  7809                           
  7810                           ;./soft_spi.h: 113:     _delay((unsigned long)((10)*(20000000/4000000.0)));
  7811     0B55  3010               	movlw	16
  7812     0B56  00F0               	movwf	??_Soft_SPI_Write
  7813     0B57                     u3457:
  7814     0B57  0BF0               	decfsz	??_Soft_SPI_Write,f
  7815     0B58  2B57               	goto	u3457
  7816     0B59  0000               	nop
  7817     0B5A                     l2463:
  7818                           
  7819                           ;./soft_spi.h: 114:     RC1 = 0;
  7820     0B5A  1283               	bcf	3,5	;RP0=0, select bank0
  7821     0B5B  1303               	bcf	3,6	;RP1=0, select bank0
  7822     0B5C  1087               	bcf	7,1	;volatile
  7823                           
  7824                           ;./soft_spi.h: 115:     _delay((unsigned long)((10)*(20000000/4000000.0)));
  7825     0B5D  3010               	movlw	16
  7826     0B5E  00F0               	movwf	??_Soft_SPI_Write
  7827     0B5F                     u3467:
  7828     0B5F  0BF0               	decfsz	??_Soft_SPI_Write,f
  7829     0B60  2B5F               	goto	u3467
  7830     0B61  0000               	nop
  7831     0B62                     l2465:
  7832                           
  7833                           ;./soft_spi.h: 116:   }
  7834     0B62  3001               	movlw	1
  7835     0B63  00FF               	movwf	btemp+1
  7836     0B64  087F               	movf	btemp+1,w
  7837     0B65  07F2               	addwf	Soft_SPI_Write@cont_s,f
  7838     0B66                     l2467:
  7839     0B66  3008               	movlw	8
  7840     0B67  0272               	subwf	Soft_SPI_Write@cont_s,w
  7841     0B68  1C03               	skipc
  7842     0B69  2B6B               	goto	u1631
  7843     0B6A  2B6C               	goto	u1630
  7844     0B6B                     u1631:
  7845     0B6B  2B47               	goto	l254
  7846     0B6C                     u1630:
  7847     0B6C                     l258:
  7848     0B6C  0008               	return
  7849     0B6D                     __end_of_Soft_SPI_Write:
  7850                           
  7851                           	psect	text38
  7852     0AF6                     __ptext38:	
  7853 ;; *************** function _Soft_SPI_Read *****************
  7854 ;; Defined at:
  7855 ;;		line 80 in file "./soft_spi.h"
  7856 ;; Parameters:    Size  Location     Type
  7857 ;;		None
  7858 ;; Auto vars:     Size  Location     Type
  7859 ;;  cont_s          1    2[COMMON] unsigned char 
  7860 ;;  dato_           1    1[COMMON] unsigned char 
  7861 ;; Return value:  Size  Location     Type
  7862 ;;                  1    wreg      unsigned char 
  7863 ;; Registers used:
  7864 ;;		wreg, status,2, status,0, btemp+1
  7865 ;; Tracked objects:
  7866 ;;		On entry : 0/0
  7867 ;;		On exit  : 0/0
  7868 ;;		Unchanged: 0/0
  7869 ;; Data sizes:     COMMON   BANK0   BANK1   BANK3   BANK2
  7870 ;;      Params:         0       0       0       0       0
  7871 ;;      Locals:         2       0       0       0       0
  7872 ;;      Temps:          1       0       0       0       0
  7873 ;;      Totals:         3       0       0       0       0
  7874 ;;Total ram usage:        3 bytes
  7875 ;; Hardware stack levels used: 1
  7876 ;; This function calls:
  7877 ;;		Nothing
  7878 ;; This function is called by:
  7879 ;;		_MFRC522_Rd
  7880 ;; This function uses a non-reentrant model
  7881 ;;
  7882                           
  7883     0AF6                     _Soft_SPI_Read:	
  7884                           ;psect for function _Soft_SPI_Read
  7885                           
  7886     0AF6                     l2427:	
  7887                           ;incstack = 0
  7888                           ; Regs used in _Soft_SPI_Read: [wreg+status,2+status,0+btemp+1]
  7889                           
  7890                           
  7891                           ;./soft_spi.h: 82:   unsigned char cont_s= 0;
  7892     0AF6  01F2               	clrf	Soft_SPI_Read@cont_s
  7893                           
  7894                           ;./soft_spi.h: 83:   unsigned char dato_ = 0;
  7895     0AF7  01F1               	clrf	Soft_SPI_Read@dato_
  7896                           
  7897                           ;./soft_spi.h: 85:   for(cont_s= 0; cont_s < 8; cont_s++)
  7898     0AF8  01F2               	clrf	Soft_SPI_Read@cont_s
  7899     0AF9                     l2433:
  7900                           
  7901                           ;./soft_spi.h: 86:   {;./soft_spi.h: 87:       dato_ <<= 1;
  7902     0AF9  1003               	clrc
  7903     0AFA  0DF1               	rlf	Soft_SPI_Read@dato_,f
  7904     0AFB                     l2435:
  7905                           
  7906                           ;./soft_spi.h: 88:       RC1 = 1;
  7907     0AFB  1283               	bcf	3,5	;RP0=0, select bank0
  7908     0AFC  1303               	bcf	3,6	;RP1=0, select bank0
  7909     0AFD  1487               	bsf	7,1	;volatile
  7910                           
  7911                           ;./soft_spi.h: 89:       _delay((unsigned long)((10)*(20000000/4000000.0)));
  7912     0AFE  3010               	movlw	16
  7913     0AFF  00F0               	movwf	??_Soft_SPI_Read
  7914     0B00                     u3477:
  7915     0B00  0BF0               	decfsz	??_Soft_SPI_Read,f
  7916     0B01  2B00               	goto	u3477
  7917     0B02  0000               	nop
  7918     0B03                     l2437:
  7919                           
  7920                           ;./soft_spi.h: 91:       if(RC3 != 0)
  7921     0B03  1283               	bcf	3,5	;RP0=0, select bank0
  7922     0B04  1303               	bcf	3,6	;RP1=0, select bank0
  7923     0B05  1D87               	btfss	7,3	;volatile
  7924     0B06  2B08               	goto	u1601
  7925     0B07  2B09               	goto	u1600
  7926     0B08                     u1601:
  7927     0B08  2B0A               	goto	l250
  7928     0B09                     u1600:
  7929     0B09                     l2439:
  7930                           
  7931                           ;./soft_spi.h: 92:       {;./soft_spi.h: 93:         dato_ |= 1;
  7932     0B09  1471               	bsf	Soft_SPI_Read@dato_,0
  7933     0B0A                     l250:	
  7934                           ;./soft_spi.h: 94:       }
  7935                           
  7936                           
  7937                           ;./soft_spi.h: 95:       RC1 = 0;
  7938     0B0A  1087               	bcf	7,1	;volatile
  7939     0B0B                     l2441:
  7940                           
  7941                           ;./soft_spi.h: 96:       _delay((unsigned long)((10)*(20000000/4000000.0)));
  7942     0B0B  3010               	movlw	16
  7943     0B0C  00F0               	movwf	??_Soft_SPI_Read
  7944     0B0D                     u3487:
  7945     0B0D  0BF0               	decfsz	??_Soft_SPI_Read,f
  7946     0B0E  2B0D               	goto	u3487
  7947     0B0F  0000               	nop
  7948     0B10                     l2443:
  7949                           
  7950                           ;./soft_spi.h: 97:   }
  7951     0B10  3001               	movlw	1
  7952     0B11  00FF               	movwf	btemp+1
  7953     0B12  087F               	movf	btemp+1,w
  7954     0B13  07F2               	addwf	Soft_SPI_Read@cont_s,f
  7955     0B14                     l2445:
  7956     0B14  3008               	movlw	8
  7957     0B15  0272               	subwf	Soft_SPI_Read@cont_s,w
  7958     0B16  1C03               	skipc
  7959     0B17  2B19               	goto	u1611
  7960     0B18  2B1A               	goto	u1610
  7961     0B19                     u1611:
  7962     0B19  2AF9               	goto	l2433
  7963     0B1A                     u1610:
  7964     0B1A                     l2447:
  7965                           
  7966                           ;./soft_spi.h: 98:   return dato_;
  7967     0B1A  0871               	movf	Soft_SPI_Read@dato_,w
  7968     0B1B                     l251:
  7969     0B1B  0008               	return
  7970     0B1C                     __end_of_Soft_SPI_Read:
  7971     007E                     btemp	set	126	;btemp
  7972     007E                     wtemp0	set	126
  7973                           
  7974                           	psect	config
  7975                           
  7976                           ;Config register CONFIG @ 0x2007
  7977                           ;	Oscillator Selection bits
  7978                           ;	FOSC = HS, HS oscillator
  7979                           ;	Watchdog Timer Enable bit
  7980                           ;	WDTE = OFF, WDT disabled
  7981                           ;	Power-up Timer Enable bit
  7982                           ;	PWRTE = OFF, PWRT disabled
  7983                           ;	Brown-out Reset Enable bit
  7984                           ;	BOREN = OFF, BOR disabled
  7985                           ;	Low-Voltage (Single-Supply) In-Circuit Serial Programming Enable bit
  7986                           ;	LVP = OFF, RB3 is digital I/O, HV on MCLR must be used for programming
  7987                           ;	Data EEPROM Memory Code Protection bit
  7988                           ;	CPD = OFF, Data EEPROM code protection off
  7989                           ;	Flash Program Memory Write Enable bits
  7990                           ;	WRT = OFF, Write protection off; all program memory may be written to by EECON control
  7991                           ;	In-Circuit Debugger Mode bit
  7992                           ;	DEBUG = 0x1, unprogrammed default
  7993                           ;	Flash Program Memory Code Protection bit
  7994                           ;	CP = OFF, Code protection off
  7995     2007                     	org	8199
  7996     2007  3F3A               	dw	16186

Data Sizes:
    Strings     336
    Constant    0
    Data        24
    BSS         0
    Persistent  0
    Stack       0

Auto Spaces:
    Space          Size  Autos    Used
    COMMON           14     14      14
    BANK0            80     67      79
    BANK1            80      0      12
    BANK3            96      0       0
    BANK2            96      0       0

Pointer List with Targets:

    MFRC522_ReadCardSerial@str	PTR unsigned char  size(1) Largest target is 10
		 -> lenh_themthe@UID(BANK0[10]), lenh_mocua_quetthe@UID(BANK0[10]), 

    MFRC522_isCard@TagType	PTR unsigned char  size(1) Largest target is 2
		 -> lenh_themthe@TagType(BANK0[2]), lenh_mocua_quetthe@TagType(BANK0[2]), 

    MFRC522_AntiColl@serNum	PTR unsigned char  size(1) Largest target is 10
		 -> lenh_themthe@UID(BANK0[10]), lenh_mocua_quetthe@UID(BANK0[10]), 

    MFRC522_Request@TagType	PTR unsigned char  size(1) Largest target is 2
		 -> lenh_themthe@TagType(BANK0[2]), lenh_mocua_quetthe@TagType(BANK0[2]), 

    MFRC522_ToCard@backData	PTR unsigned char  size(1) Largest target is 18
		 -> lenh_themthe@UID(BANK0[10]), lenh_themthe@TagType(BANK0[2]), lenh_mocua_quetthe@UID(BANK0[10]), lenh_mocua_quetthe@TagType(BANK0[2]), 
		 -> MFRC522_Write@buff(BANK0[18]), MFRC522_Auth@buff(COMMON[12]), MFRC522_Halt@buff(COMMON[4]), MFRC522_SelectTag@buffer(COMMON[9]), 

    MFRC522_ToCard@backLen	PTR unsigned int  size(1) Largest target is 2
		 -> MFRC522_AntiColl@unLen(BANK0[2]), MFRC522_Read@unLen(COMMON[2]), MFRC522_Write@recvBits(COMMON[2]), MFRC522_Auth@recvBits(COMMON[2]), 
		 -> MFRC522_Halt@unLen(COMMON[2]), MFRC522_SelectTag@recvBits(COMMON[2]), MFRC522_Request@backBits(BANK0[2]), 

    MFRC522_ToCard@sendData	PTR unsigned char  size(1) Largest target is 18
		 -> lenh_themthe@UID(BANK0[10]), lenh_themthe@TagType(BANK0[2]), lenh_mocua_quetthe@UID(BANK0[10]), lenh_mocua_quetthe@TagType(BANK0[2]), 
		 -> MFRC522_Write@buff(BANK0[18]), MFRC522_Auth@buff(COMMON[12]), MFRC522_Halt@buff(COMMON[4]), MFRC522_SelectTag@buffer(COMMON[9]), 

    chuoi_kytu@a	PTR unsigned char  size(2) Largest target is 21
		 -> STR_25(CODE[16]), STR_24(CODE[18]), STR_23(CODE[20]), STR_22(CODE[18]), 
		 -> STR_21(CODE[19]), STR_20(CODE[17]), STR_19(CODE[21]), STR_17(CODE[10]), 
		 -> STR_16(CODE[15]), STR_15(CODE[17]), STR_14(CODE[13]), STR_13(CODE[8]), 
		 -> STR_12(CODE[20]), STR_11(CODE[17]), STR_10(CODE[15]), STR_9(CODE[20]), 
		 -> STR_8(CODE[9]), STR_7(CODE[10]), STR_6(CODE[10]), STR_5(CODE[17]), 
		 -> STR_4(CODE[5]), STR_3(CODE[19]), STR_2(CODE[13]), STR_1(CODE[14]), 


Critical Paths under _main in COMMON

    _taplenh_menu->_lenh_mocua_matkhau
    _lenh_xoathe->_chuoi_kytu
    _lenh_themthe->_MFRC522_isCard
    _check_dulieu_the->___bmul
    _lenh_mocua_quetthe->_MFRC522_isCard
    _MFRC522_isCard->_MFRC522_Request
    _MFRC522_ReadCardSerial->_MFRC522_AntiColl
    _MFRC522_AntiColl->_MFRC522_Clear_Bit
    _MFRC522_ToCard->_MFRC522_Clear_Bit
    _lenh_mocua_matkhau->_unlock
    _unlock->_chuoi_kytu
    _lenh_doipass->_failunlock
    _switch_press_scan->_keypad_scanner
    _failunlock->_chuoi_kytu
    _menu->_chuoi_kytu
    _chuoi_kytu->_du_lieu
    _khoi_taoLCD->_gui_Lenh
    _khoi_taoLCD->_lenh
    _MFRC522_Reset->_MFRC522_Wr
    _MFRC522_AntennaOn->_MFRC522_Set_Bit
    _MFRC522_Set_Bit->_MFRC522_Wr
    _MFRC522_AntennaOff->_MFRC522_Clear_Bit
    _MFRC522_Clear_Bit->_MFRC522_Wr
    _MFRC522_Wr->_MFRC522_Rd
    _MFRC522_Rd->_Soft_SPI_Read
    _MFRC522_Rd->_Soft_SPI_Write

Critical Paths under _main in BANK0

    _main->_taplenh_menu
    _taplenh_menu->_lenh_themthe
    _lenh_themthe->_MFRC522_ReadCardSerial
    _lenh_mocua_quetthe->_MFRC522_ReadCardSerial
    _MFRC522_isCard->_MFRC522_Request
    _MFRC522_Request->_MFRC522_ToCard
    _MFRC522_ReadCardSerial->_MFRC522_AntiColl
    _MFRC522_AntiColl->_MFRC522_ToCard

Critical Paths under _main in BANK1

    None.

Critical Paths under _main in BANK3

    None.

Critical Paths under _main in BANK2

    None.

Call Graph Tables:

 ---------------------------------------------------------------------------------
 (Depth) Function   	        Calls       Base Space   Used Autos Params    Refs
 ---------------------------------------------------------------------------------
 (0) _main                                                16    16      0   88040
                                             63 BANK0      4     4      0
                       _MFRC522_Init
                      _Soft_SPI_Init
                     _khoi_taoKeypad
                        _khoi_taoLCD
                               _menu
                  _switch_press_scan
                       _taplenh_menu
 ---------------------------------------------------------------------------------
 (1) _taplenh_menu                                         5     5      0   78754
                                             58 BANK0      5     5      0
                         _chuoi_kytu
                          _clear_lcd
                               _lenh
                       _lenh_doipass
                 _lenh_mocua_matkhau
                 _lenh_mocua_quetthe
                       _lenh_themthe
                        _lenh_xoathe
                  _switch_press_scan
 ---------------------------------------------------------------------------------
 (2) _lenh_xoathe                                          3     3      0    2139
                                              5 COMMON     3     3      0
                         _chuoi_kytu
                          _clear_lcd
                               _lenh
 ---------------------------------------------------------------------------------
 (2) _lenh_themthe                                        32    32      0   30186
                                             26 BANK0     32    32      0
             _MFRC522_ReadCardSerial
                     _MFRC522_isCard
                             ___bmul
                   _check_dulieu_the
                         _chuoi_kytu
                          _clear_lcd
                            _du_lieu
                         _failunlock
                               _lenh
                         _readEEPROM
                  _switch_press_scan
                        _writeEEPROM
 ---------------------------------------------------------------------------------
 (3) _check_dulieu_the                                     2     2      0     486
                                              3 COMMON     1     1      0
                             ___bmul
                         _readEEPROM
 ---------------------------------------------------------------------------------
 (2) _lenh_mocua_quetthe                                  32    32      0   31004
                                             26 BANK0     30    30      0
             _MFRC522_ReadCardSerial
                     _MFRC522_isCard
                             ___bmul
                         _chuoi_kytu
                          _clear_lcd
                         _failunlock
                               _lenh
                         _readEEPROM
                             _unlock
 ---------------------------------------------------------------------------------
 (4) ___bmul                                               3     2      1     396
                                              0 COMMON     3     2      1
 ---------------------------------------------------------------------------------
 (3) _MFRC522_isCard                                       1     1      0   10634
                                             13 COMMON     1     1      0
                    _MFRC522_Request
 ---------------------------------------------------------------------------------
 (4) _MFRC522_Request                                      5     4      1   10546
                                             12 COMMON     1     0      1
                                             18 BANK0      4     4      0
                     _MFRC522_ToCard
                         _MFRC522_Wr
 ---------------------------------------------------------------------------------
 (3) _MFRC522_ReadCardSerial                               2     2      0   12941
                                             24 BANK0      2     2      0
                   _MFRC522_AntiColl
 ---------------------------------------------------------------------------------
 (4) _MFRC522_AntiColl                                     7     7      0   12808
                                             12 COMMON     1     1      0
                                             18 BANK0      6     6      0
                  _MFRC522_Clear_Bit
                     _MFRC522_ToCard
                         _MFRC522_Wr
 ---------------------------------------------------------------------------------
 (5) _MFRC522_ToCard                                      18    14      4    8882
                                              0 BANK0     18    14      4
                  _MFRC522_Clear_Bit
                         _MFRC522_Rd
                    _MFRC522_Set_Bit
                         _MFRC522_Wr
 ---------------------------------------------------------------------------------
 (2) _lenh_mocua_matkhau                                  15    15      0    7669
                                             11 COMMON     3     3      0
                                              0 BANK0     12    12      0
                         _chuoi_kytu
                          _clear_lcd
                            _du_lieu
                         _failunlock
                               _lenh
                         _readEEPROM
                  _switch_press_scan
                             _unlock
                        _writeEEPROM
 ---------------------------------------------------------------------------------
 (3) _unlock                                               6     6      0    2320
                                              5 COMMON     6     6      0
                         _chuoi_kytu
                          _clear_lcd
                            _du_lieu
                               _lenh
 ---------------------------------------------------------------------------------
 (2) _lenh_doipass                                        15    15      0    5415
                                              8 COMMON     3     3      0
                                              0 BANK0     12    12      0
                         _chuoi_kytu
                          _clear_lcd
                            _du_lieu
                         _failunlock
                               _lenh
                         _readEEPROM
                  _switch_press_scan
                        _writeEEPROM
 ---------------------------------------------------------------------------------
 (3) _writeEEPROM                                          2     1      1     500
                                              0 COMMON     2     1      1
 ---------------------------------------------------------------------------------
 (2) _switch_press_scan                                    1     1      0      46
                                              2 COMMON     1     1      0
                     _keypad_scanner
 ---------------------------------------------------------------------------------
 (3) _keypad_scanner                                       2     2      0       0
                                              0 COMMON     2     2      0
 ---------------------------------------------------------------------------------
 (3) _readEEPROM                                           1     1      0      22
                                              0 COMMON     1     1      0
 ---------------------------------------------------------------------------------
 (3) _failunlock                                           3     3      0    2139
                                              5 COMMON     3     3      0
                         _chuoi_kytu
                          _clear_lcd
                               _lenh
 ---------------------------------------------------------------------------------
 (1) _menu                                                 0     0      0    2139
                         _chuoi_kytu
                          _clear_lcd
                               _lenh
 ---------------------------------------------------------------------------------
 (3) _clear_lcd                                            4     4      0      68
                                              0 COMMON     4     4      0
 ---------------------------------------------------------------------------------
 (3) _chuoi_kytu                                           3     1      2    2004
                                              2 COMMON     3     1      2
                            _du_lieu
 ---------------------------------------------------------------------------------
 (4) _du_lieu                                              2     2      0      90
                                              0 COMMON     2     2      0
 ---------------------------------------------------------------------------------
 (1) _khoi_taoLCD                                          0     0      0      89
                           _gui_Lenh
                               _lenh
 ---------------------------------------------------------------------------------
 (3) _lenh                                                 2     2      0      67
                                              0 COMMON     2     2      0
 ---------------------------------------------------------------------------------
 (2) _gui_Lenh                                             2     2      0      22
                                              0 COMMON     2     2      0
 ---------------------------------------------------------------------------------
 (1) _khoi_taoKeypad                                       0     0      0       0
 ---------------------------------------------------------------------------------
 (1) _Soft_SPI_Init                                        0     0      0       0
 ---------------------------------------------------------------------------------
 (1) _MFRC522_Init                                         0     0      0    6966
                 _MFRC522_AntennaOff
                  _MFRC522_AntennaOn
                      _MFRC522_Reset
                         _MFRC522_Wr
 ---------------------------------------------------------------------------------
 (2) _MFRC522_Reset                                        0     0      0    1406
                         _MFRC522_Wr
 ---------------------------------------------------------------------------------
 (2) _MFRC522_AntennaOn                                    0     0      0    1963
                    _MFRC522_Set_Bit
 ---------------------------------------------------------------------------------
 (6) _MFRC522_Set_Bit                                      2     1      1    1963
                                              9 COMMON     2     1      1
                         _MFRC522_Rd
                         _MFRC522_Wr
 ---------------------------------------------------------------------------------
 (2) _MFRC522_AntennaOff                                   0     0      0    2191
                  _MFRC522_Clear_Bit
 ---------------------------------------------------------------------------------
 (6) _MFRC522_Clear_Bit                                    3     2      1    2191
                                              9 COMMON     3     2      1
                         _MFRC522_Rd
                         _MFRC522_Wr
 ---------------------------------------------------------------------------------
 (5) _MFRC522_Wr                                           3     2      1    1406
                                              6 COMMON     3     2      1
                         _MFRC522_Rd (ARG)
                     _Soft_SPI_Write
 ---------------------------------------------------------------------------------
 (7) _MFRC522_Rd                                           3     3      0     187
                                              3 COMMON     3     3      0
                      _Soft_SPI_Read
                     _Soft_SPI_Write
 ---------------------------------------------------------------------------------
 (6) _Soft_SPI_Write                                       3     3      0      70
                                              0 COMMON     3     3      0
 ---------------------------------------------------------------------------------
 (8) _Soft_SPI_Read                                        3     3      0      72
                                              0 COMMON     3     3      0
 ---------------------------------------------------------------------------------
 Estimated maximum stack depth 8
 ---------------------------------------------------------------------------------

 Call Graph Graphs:

 _main (ROOT)
   _MFRC522_Init
     _MFRC522_AntennaOff
       _MFRC522_Clear_Bit
         _MFRC522_Rd
           _Soft_SPI_Read
           _Soft_SPI_Write
         _MFRC522_Wr
           _MFRC522_Rd (ARG)
           _Soft_SPI_Write (ARG)
     _MFRC522_AntennaOn
       _MFRC522_Set_Bit
         _MFRC522_Rd
         _MFRC522_Wr
     _MFRC522_Reset
       _MFRC522_Wr
     _MFRC522_Wr
   _Soft_SPI_Init
   _khoi_taoKeypad
   _khoi_taoLCD
     _gui_Lenh
     _lenh
   _menu
     _chuoi_kytu
       _du_lieu
     _clear_lcd
     _lenh
   _switch_press_scan
     _keypad_scanner
   _taplenh_menu
     _chuoi_kytu
     _clear_lcd
     _lenh
     _lenh_doipass
       _chuoi_kytu
       _clear_lcd
       _du_lieu
       _failunlock
         _chuoi_kytu
         _clear_lcd
         _lenh
       _lenh
       _readEEPROM
       _switch_press_scan
       _writeEEPROM
     _lenh_mocua_matkhau
       _chuoi_kytu
       _clear_lcd
       _du_lieu
       _failunlock
       _lenh
       _readEEPROM
       _switch_press_scan
       _unlock
         _chuoi_kytu
         _clear_lcd
         _du_lieu
         _lenh
       _writeEEPROM
     _lenh_mocua_quetthe
       _MFRC522_ReadCardSerial
         _MFRC522_AntiColl
           _MFRC522_Clear_Bit
           _MFRC522_ToCard
             _MFRC522_Clear_Bit
             _MFRC522_Rd
             _MFRC522_Set_Bit
             _MFRC522_Wr
           _MFRC522_Wr
       _MFRC522_isCard
         _MFRC522_Request
           _MFRC522_ToCard
           _MFRC522_Wr
       ___bmul
       _chuoi_kytu
       _clear_lcd
       _failunlock
       _lenh
       _readEEPROM
       _unlock
     _lenh_themthe
       _MFRC522_ReadCardSerial
       _MFRC522_isCard
       ___bmul
       _check_dulieu_the
         ___bmul
         _readEEPROM
       _chuoi_kytu
       _clear_lcd
       _du_lieu
       _failunlock
       _lenh
       _readEEPROM
       _switch_press_scan
       _writeEEPROM
     _lenh_xoathe
       _chuoi_kytu
       _clear_lcd
       _lenh
     _switch_press_scan

 Address spaces:
Name               Size   Autos  Total    Cost      Usage
BANK3               60      0       0       9        0.0%
BITBANK3            60      0       0       8        0.0%
SFR3                 0      0       0       4        0.0%
BITSFR3              0      0       0       4        0.0%
BANK2               60      0       0      11        0.0%
BITBANK2            60      0       0      10        0.0%
SFR2                 0      0       0       5        0.0%
BITSFR2              0      0       0       5        0.0%
BANK1               50      0       C       7       15.0%
BITBANK1            50      0       0       6        0.0%
SFR1                 0      0       0       2        0.0%
BITSFR1              0      0       0       2        0.0%
BANK0               50     43      4F       5       98.8%
BITBANK0            50      0       0       4        0.0%
SFR0                 0      0       0       1        0.0%
BITSFR0              0      0       0       1        0.0%
COMMON               E      E       E       1      100.0%
BITCOMMON            E      0       0       0        0.0%
CODE                 0      0       0       0        0.0%
DATA                 0      0      69      12        0.0%
ABS                  0      0      69       3        0.0%
NULL                 0      0       0       0        0.0%
STACK                0      0       0       2        0.0%
EEDATA             100      0       0       0        0.0%


Microchip Technology PIC Macro Assembler V2.41 build 20230208172133 
Symbol Table                                                                                   Mon Jun 05 16:22:51 2023

                             pc 0002                  ___bmul@product 0071                              l72 09BF  
                            l75 0A65                              l84 0B97                              l69 0AD3  
                            l93 09D0                              l78 0AF5                              l87 0040  
                            l96 015B                              l97 0153                     chuoi_kytu@a 0072  
                   chuoi_kytu@i 0074                              _mk 0069                              fsr 0004  
           Soft_SPI_Read@cont_s 0072                             l100 0296                             l101 0197  
                           l102 016F                             l103 0167                             l120 01EC  
                           l121 01C4                             l113 018F                             l122 01BC  
                           l107 0183                             l140 0218                             l132 01E4  
                           l116 01B0                             l108 017B                             l141 0210  
                           l117 01A8                             l126 01D8                             l310 03FC  
                           l151 0238                             l135 0204                             l127 01D0  
                           l160 0265                             l136 01FC                             l145 022C  
                           l313 0BC9                             l401 0FAA                             l250 0B0A  
                           l242 096D                             l170 028D                             l154 0259  
                           l146 0224                             l251 0B1B                             l163 0295  
                           l155 0251                             l139 0240                             l164 0281  
                           l316 0BCA                             l261 0A33                             l245 0992  
                           l165 0279                             l254 0B47                             l270 09AF  
                           l422 0140                             l406 0FFF                             l159 026D  
                           l256 0B4F                             l264 0A4C                             l273 000B  
                           l258 0B6C                             l282 0C53                             l267 09E2  
                           l371 0CFA                             l451 0B43                             l276 17FF  
                           l460 049E                             l380 0A99                             l444 07B1  
                           l437 07E0                             l390 0E36                             l279 17F6  
                           l391 0E3E                             l367 0CF9                             l375 09F4  
                           l617 0A1C                             l481 0F00                             l386 0CA2  
                           l466 05B3                             l298 03FB                             l491 0A78  
                           l469 0C0C                             l493 0A7E                             l397 0F3D  
                           l485 0AB3                             l494 0A7F                             l488 099F  
                           _RB0 0030                             _RB1 0031                             _RB2 0032  
                           _RC0 0038                             _RB3 0033                             _RC1 0039  
                           _RB4 0034                             _RC2 003A                             _RB5 0035  
                           _RC3 003B                             _RB6 0036                             _RC4 003C  
                           _RB7 0037                             fsr0 0004                             indf 0000  
   lenh_mocua_matkhau@flagmksai 0026                  ??_MFRC522_Init 007C                            l3001 0F0D  
                          l3011 0F1A                            l3003 0F0D                            l3101 00B0  
                          l3013 0F23                            l3005 0F0E                            l3111 00BC  
                          l3103 00B6                            l3023 0F40                            l3015 0F2E  
                          l3007 0F0F                            l3113 00C1                            l3105 00BA  
                          l3041 0F8B                            l3033 0F63                            l3025 0F4E  
                          l3017 0F39                            l3009 0F14                            l3201 065B  
                          l3131 0103                            l3115 00CC                            l3051 0FC2  
                          l3043 0F99                            l3035 0F71                            l3027 0F5F  
                          l3211 0691                            l3203 0669                            l2501 0AE9  
                          l3301 0403                            l3141 0135                            l3133 0111  
                          l3125 00E5                            l3117 00D4                            l3061 0FDF  
                          l3053 0FC5                            l3045 0F9C                            l3037 0F80  
                          l3221 06C9                            l3213 069E                            l3205 0675  
                          l2503 0AEC                            l3311 0433                            l3303 0419  
                          l3143 013B                            l3135 011A                            l3127 00F3  
                          l3119 00E1                            l3071 0045                            l2511 029A  
                          l3063 0FE5                            l3055 0FD2                            l3047 0FAF  
                          l3039 0F8A                            l3231 06F6                            l3223 06CF  
                          l3215 06A6                            l3207 0679                            l3151 05D0  
                          l2441 0B0B                            l2433 0AF9                            l2601 0AB9  
                          l2505 0AEE                            l3401 057D                            l3321 0446  
                          l3313 043C                            l3305 041E                            l3137 0127  
                          l3129 00FF                            l3081 006F                            l3073 0047  
                          l2513 029C                            l3065 0FF2                            l3057 0FD8  
                          l3049 0FB5                            l3241 0727                            l3225 06D7  
                          l3217 06B1                            l3209 0688                            l3161 05F2  
                          l3153 05D5                            l3145 05B4                            l2443 0B10  
                          l2435 0AFB                            l2427 0AF6                            l2451 0B45  
                          l2611 0ACC                            l2603 0ABC                            l2507 0AEF  
                          l3411 05A0                            l3403 0580                            l3323 044B  
                          l3315 0442                            l3307 0424                            l3139 012F  
                          l3083 007A                            l3075 005B                            l2531 02EC  
                          l2523 02A9                            l2515 029D                            l3067 0FFA  
                          l3059 0FDC                            l3243 072B                            l3227 06E2  
                          l3235 0706                            l3219 06BA                            l3171 0609  
                          l3163 0600                            l3155 05DB                            l3147 05B8  
                          l2445 0B14                            l2437 0B03                            l2461 0B54  
                          l2613 0ACD                            l2605 0ABD                            l3421 0A4D  
                          l2509 0AF0                            l2621 0B80                            l3413 05A1  
                          l3405 058D                            l3341 0485                            l3325 0456  
                          l3309 042D                            l3093 008E                            l3085 007D  
                          l3077 0060                            l3069 0041                            l2541 0319  
                          l2533 02F4                            l2525 02B9                            l2517 029F  
                          l3261 0769                            l3245 0736                            l3237 0713  
                          l3229 06ED                            l3181 0630                            l3173 0611  
                          l3157 05E4                            l3149 05BA                            l3501 0E96  
                          l2447 0B1A                            l2439 0B09                            l2463 0B5A  
                          l2471 0A21                            l3431 0C0D                            l3423 0962  
                          l2615 0ACE                            l2607 0ABE                            l2623 0B84  
                          l2631 0018                            l2711 0202                            l2703 01DC  
                          l3407 0590                            l3415 05A3                            l3351 04B1  
                          l3343 0488                            l3335 046F                            l3327 045E  
                          l3095 0093                            l3087 008A                            l3079 0066  
                          l2551 033E                            l2543 031F                            l2535 0301  
                          l2527 02D9                            l2519 02A4                            l3271 079D  
                          l3263 0776                            l3255 0750                            l3247 0741  
                          l3239 071E                            l3191 0642                            l3175 0619  
                          l3159 05EF                            l3511 0EBA                            l3503 0E9E  
                          l2465 0B62                            l2457 0B4B                            l2481 0A4B  
                          l2473 0A30                            l3433 0C15                            l3425 0965  
                          l2609 0AC9                            l2617 0B6D                            l2641 0031  
                          l2633 001B                            l2625 000C                            l2705 01EA  
                          l3417 05A9                            l3409 059D                            l3361 04F0  
                          l3353 04BE                            l3345 048E                            l3337 0477  
                          l3329 046B                            l3097 009B                            l2561 0363  
                          l2553 0346                            l2545 032E                            l2537 0309  
                          l2529 02DE                            l2801 0CD9                            l3281 07CB  
                          l3273 07AC                            l3265 0784                            l3257 075E  
                          l3249 074E                            l3193 064A                            l3169 0604  
                          l3177 0626                            l3521 0ED9                            l3513 0EBD  
                          l3505 0EA3                            l2467 0B66                            l2459 0B52  
                          l2475 0A35                            l3427 0969                            l2491 0ADA  
                          l2619 0B6F                            l2643 0032                            l2635 001C  
                          l2627 0012                            l2651 0159                            l3419 05AE  
                          l3371 04FC                            l3363 04F6                            l3355 04C6  
                          l3347 049A                            l3339 0478                            l3099 00A3  
                          l2571 03A8                            l2563 0365                            l2555 034E  
                          l2547 0334                            l2539 0311                            l2811 0CE8  
                          l3275 07AF                            l3267 078B                            l3259 0763  
                          l3195 0657                            l3187 0632                            l3179 062C  
                          l3291 0B27                            l3531 0EF8                            l3523 0EDC  
                          l3507 0EAB                            l3515 0EC2                            l2477 0A38  
                          l2469 0A1E                            l2485 09D2                            l3429 0986  
                          l2493 0ADB                            l2645 0033                            l2637 0027  
                          l2629 0013                            l3461 0BCB                            l2901 0C9A  
                          l2821 0998                            l2741 0257                            l2733 0230  
                          l2725 021C                            l2717 0208                            l2709 01F4  
                          l3381 052B                            l3373 0501                            l3365 04FA  
                          l3357 04D8                            l3349 04A4                            l2581 03CB  
                          l2573 03BC                            l2565 036B                            l2557 0359  
                          l2549 0338                            l2813 0CEE                            l3277 07B0  
                          l3269 0798                            l3285 07D5                            l3189 0637  
                          l3293 0B30                            l3533 0EFB                            l3517 0ECA  
                          l3525 0EE1                            l3509 0EAC                            l3701 0D90  
                          l2479 0A48                            l2487 09A1                            l2495 0ADC  
                          l2639 002C                            l3471 0C03                            l3463 0BD6  
                          l2903 0C9D                            l2823 099B                            l2735 023E  
                          l2727 022A                            l2719 0216                            l2647 0141  
                          l3391 0558                            l3383 0533                            l3375 050B  
                          l3359 04E1                            l2911 0DAD                            l2583 03CE  
                          l2575 03C1                            l2567 037E                            l2559 035C  
                          l2591 03F7                            l2815 0CF7                            l2807 0CDA  
                          l2831 0A0E                            l3287 07DB                            l3279 07C0  
                          l3295 0B36                            l3527 0EE9                            l3519 0ECB  
                          l2497 0ADD                            l2489 0AD5                            l3465 0BDF  
                          l2681 01AE                            l2673 0187                            l2665 0173  
                          l2657 015F                            l2649 014B                            l3393 055E  
                          l3385 0540                            l3377 0510                            l3297 03FD  
                          l2921 0DD4                            l2913 0DBB                            l2905 0D9A  
                          l2585 03DB                            l2577 03C3                            l2569 0383  
                          l2809 0CE4                            l2833 0A12                            l3289 0B1C  
                          l3529 0EEA                            l3481 0E5A                            l3473 0E42  
                          l2499 0ADE                            l3467 0BEE                            l2819 0994  
                          l2763 0285                            l2755 0271                            l2747 025D  
                          l2739 0248                            l2675 0195                            l2667 0181  
                          l2659 016D                            l2843 09C0                            l3395 0564  
                          l3387 054D                            l3379 051E                            l3299 0401  
                          l2931 0DF5                            l2923 0DDA                            l2915 0DBE  
                          l2907 0D9D                            l2587 03E3                            l2579 03C9  
                          l3723 02B1                            l2835 0A14                            l2827 0A09  
                          l3491 0E7D                            l3483 0E5F                            l3475 0E48  
                          l3469 0BF4                            l2765 0293                            l2757 027F  
                          l2749 026B                            l2845 09C3                            l3397 056D  
                          l3389 0552                            l2941 0E01                            l2925 0DE3  
                          l2917 0DCC                            l2909 0DAA                            l2589 03F0  
                          l2781 0BC0                            l2773 0B9B                            l2861 09F3  
                          l2853 09E4                            l2837 0A16                            l2829 0A0A  
                          l3485 0E65                            l3477 0E49                            l3661 0D00  
                          l2599 0AB5                            l2695 01C8                            l2687 01B4  
                          l2679 019F                            l2847 09C9                            l3399 0570  
                          l2951 0E29                            l2943 0E07                            l2927 0DE6  
                          l2919 0DCF                            l2791 0CAE                            l2871 0A96  
                          l2783 0BC7                            l2775 0BA3                            l2855 09F1  
                          l2839 0A1B                            l3495 0E85                            l3487 0E6E  
                          l3479 0E57                            l3671 0D1A                            l3663 0D03  
                          l2881 0C54                            l2769 0295                            l2697 01D6  
                          l2689 01C2                            l2849 09CF                            l2961 0A71  
                          l2953 0E39                            l2945 0E0D                            l2937 0DF9  
                          l2929 0DEC                            l2793 0CB5                            l2865 0A83  
                          l2777 0BAA                            l3497 0E8B                            l3489 0E74  
                          l3681 0D4A                            l3673 0D28                            l3665 0D08  
                          l3657 0CFB                            l2891 0C7B                            l2883 0C5F  
                          l2963 0A76                            l2955 0A67                            l2947 0E16  
                          l2939 0DFB                            l2795 0CB9                            l2787 0CA6  
                          l2867 0A8C                            l2779 0BBB                            l2971 0AA5  
                          l3499 0E91                            l3691 0D6F                            l3683 0D4D  
                          l3675 0D2B                            l3667 0D0D                            l3659 0CFE  
                          l2981 09B1                            l2893 0C7C                            l2885 0C68  
                          l2965 0A77                            l2957 0A6D                            l2949 0E23  
                          l2797 0CC1                            l2789 0CA7                            l2877 0A98  
                          l2869 0A91                            l2973 0AB0                            l3693 0D7D  
                          l3685 0D5B                            l3677 0D39                            l3669 0D17  
                          l2991 0003                            l2983 09B5                            l2895 0C89  
                          l2887 0C6B                            l2959 0A70                            l2799 0CD4  
                          l2967 0A9B                            l3695 0D82                            l3687 0D5E  
                          l3679 0D3C                            l2993 17F7                            l2985 09B8  
                          l2897 0C8C                            l2889 0C78                            l2977 0AB2  
                          l2969 0A9B                            l3689 0D6C                            l2995 17EE  
                          l2987 09B9                            l2899 0C8D                            l3699 0D8A  
                          l2989 09BA                            l2997 0F01                            l2999 0F09  
                          STR_1 08FC                            STR_2 090A                            STR_3 0864  
                          STR_4 0949                            STR_5 08AC                            STR_6 092E  
                          STR_7 092E                            STR_8 0938                            STR_9 0815  
                          u2000 0216                            u2001 0215                            u2010 021C  
                          u2011 021B                            u2100 027F                            u2020 022A  
                          u2101 027E                            u2021 0229                            u2110 0285  
                          u2030 0230                            u2111 0284                            u2031 022F  
                          u2120 0293                            u2040 023E                            u2200 09CF  
                          u2121 0292                            u2041 023D                            u2201 09CE  
                          u2050 0248                            u2130 0BC0                            u2210 09F1  
                          u2051 0247                            u2131 0BBF                            u2211 09F0  
                          u2060 0257                            u2220 0A96                            u2140 0BC7  
                          u2300 0FD2                            u2061 0256                            u2221 0A95  
                          u2141 0BC6                            u2301 0FD1                            u2070 025D  
                          u2230 0E36                            u2150 0CD9                            u2310 0FF2  
                          u2071 025C                            u2231 0E35                            u2151 0CD8  
                          u2311 0FF1                            u3007 06FE                            u1600 0B09  
                          u2080 026B                            u2240 0A7E                            u2160 0CEE  
                          u2320 0FFA                            u2400 05EF                            u1601 0B08  
                          u2081 026A                            u2241 0A7D                            u2161 0CED  
                          u2321 0FF9                            u2305 0FCE                            u3017 07A5  
                          u2401 05EE                            u1610 0B1A                            u2090 0271  
                          u2330 007A                            u2170 0CF7                            u2250 0AB0  
                          u2410 0626                            u1611 0B19                            u2091 0270  
                          u2235 0E32                            u3107 0DB4                            u2331 0079  
                          u2171 0CF6                            u2315 0FEE                            u2251 0AAF  
                          u3027 07B9                            u2411 0625                            u1620 0B4B  
                          u2340 00B0                            u1700 034E                            u2180 0A0E  
                          u2260 0F2E                            u2500 0776                            u2420 0657  
                          u1621 0B4A                            u3117 0DC5                            u2341 00AF  
                          u1701 034D                            u2181 0A0D                            u3037 0F48  
                          u2261 0F2D                            u2501 0775                            u2421 0656  
                          u1630 0B6C                            u2350 00E1                            u1710 0359  
                          u2190 0A1B                            u2270 0F39                            u2510 0798  
                          u2430 0675                            u1631 0B6B                            u3207 014F  
                          u3127 0E1C                            u2351 00E0                            u1711 0358  
                          u2191 0A1A                            u3047 0F59                            u2271 0F38  
                          u2511 0797                            u2431 0674                            u2415 0622  
                          u2360 00FF                            u1720 0363                            u2280 0F80  
                          u2520 07DB                            u2440 069E                            u3217 0163  
                          u3137 047E                            u2361 00FE                            u2345 00AC  
                          u1721 0362                            u3057 0F93                            u2281 0F7F  
                          u2521 07DA                            u2505 0772                            u2441 069D  
                          u2425 0653                            u1810 014B                            u2530 046B  
                          u2370 0127                            u1730 036B                            u1650 0301  
                          u2290 0FC2                            u2450 06A6                            u3307 0220  
                          u3227 0177                            u1811 014A                            u3147 04B7  
                          u2531 046A                            u2371 0126                            u2355 00DD  
                          u1731 036A                            u1651 0300                            u2291 0FC1  
                          u3067 0FA4                            u2451 06A5                            u1900 01AE  
                          u1820 0159                            u2540 049A                            u2380 012F  
                          u1740 0383                            u1660 0311                            u2460 06E2  
                          u2620 0E48                            u1645 0AE1                            u1805 001F  
                          u3317 0234                            u1901 01AD                            u3237 018B  
                          u1821 0158                            u3157 050D                            u2541 0499  
                          u2381 012E                            u3077 0083                            u1741 0382  
                          u1661 0310                            u2461 06E1                            u2445 069A  
                          u2621 0E47                            u1910 01B4                            u1830 015F  
                          u2550 04B1                            u2390 013B                            u1750 03C1  
                          u1670 0334                            u2470 0713                            u2630 0E8B  
                          u3407 0029                            u3327 024C                            u1911 01B3  
                          u3247 01A3                            u1831 015E                            u3167 0546  
                          u2551 04B0                            u2535 0467                            u2391 013A  
                          u2375 0123                            u3087 010A                            u1751 03C0  
                          u1671 0333                            u1655 02FD                            u2295 0FBE  
                          u2471 0712                            u2631 0E8A                            u1920 01C2  
                          u1840 016D                            u2560 04C6                            u1760 03C9  
                          u1680 0338                            u2480 0736                            u2640 0E91  
                          u3417 0039                            u3337 0261                            u1921 01C1  
                          u3257 01B8                            u1841 016C                            u3177 0576  
                          u2561 04C5                            u3097 0DA3                            u1761 03C8  
                          u1681 0337                            u2481 0735                            u2641 0E90  
                          u1930 01C8                            u1850 0173                            u2570 0540  
                          u1770 03F0                            u1690 033E                            u2490 0741  
                          u2650 0E9E                            u3427 0AF2                            u3347 0275  
                          u3267 01CC                            u1931 01C7                            u1851 0172  
                          u3187 0586                            u2571 053F                            u2555 04AD  
                          u1771 03EF                            u1691 033D                            u2491 0740  
                          u2651 0E9D                            u1940 01D6                            u1860 0181  
                          u2580 05A9                            u2660 0EAB                            u3437 0AD0  
                          u3357 0289                            u3277 01E0                            u1941 01D5  
                          u1861 0180                            u2581 05A8                            u3197 0596  
                          u2661 0EAA                            u1790 0B97                            u1950 01DC  
                          u1870 0187                            u2670 0ECA                            u3447 09BC  
                          u1791 0B96                            u3367 0C71                            u3287 01F8  
                          u1951 01DB                            u1871 0186                            u2575 053C  
                          u1775 03EC                            u2671 0EC9                            u1960 01EA  
                          u1880 0195                            u2680 0EE9                            u3457 0B57  
                          u1785 0AC1                            u3377 0C82                            u3297 020C  
                          u1961 01E9                            u1881 0194                            u2681 0EE8  
                          u1970 01F4                            u1890 019F                            u3467 0B5F  
                          u3387 0C93                            u1971 01F3                            u1891 019E  
                          u2907 0D55                            u1980 0202                            u2860 0D90  
                          u3477 0B00                            u3397 0015                            u1981 0201  
                          u2861 0D8F                            u2917 0D66                            u1990 0208  
                          u3487 0B0D                            u1991 0207                            u2927 0D77  
                          u2937 0E51                            u2947 0EB4                            u2957 0ED3  
                          u2877 0D22                            u2967 0EF2                            u2887 0D33  
                          u2977 0B3C                            u2897 0D44                            u2987 05FA  
                          u2997 0682                            _main 0CFB                            _lenh 0AB4  
                          _menu 0BCB           MFRC522_AntiColl@unLen 0033                            btemp 007E  
                          start 0000                _MFRC522_AntiColl 0CA3               ___bmul@multiplier 0072  
                   _writeEEPROM 0A66                  MFRC522_Rd@addr 0074                    ?_lenh_xoathe 0070  
    __end_of_lenh_mocua_matkhau 0141                 ??_MFRC522_Reset 0079                    ?_khoi_taoLCD 0070  
                MFRC522_Wr@addr 0078      __end_of_lenh_mocua_quetthe 1000              writeEEPROM@address 0071  
                         ?_main 0070                           ?_lenh 0070                           ?_menu 0070  
       ?_MFRC522_ReadCardSerial 0070                           _EEADR 010D                           STR_10 08DE  
                         STR_11 08AC                           STR_20 089B                           STR_12 083D  
                         STR_13 0941                           STR_21 0851                           STR_14 0917  
                         STR_22 0877                           STR_15 08BD                           STR_23 0829  
                         STR_16 08ED                           STR_24 0889                           STR_17 0924  
                         STR_25 08CE                           STR_18 094E                           STR_19 0800  
                         _PORTB 0006                           _PORTD 0008                           _TRISA 0085  
                         _TRISB 0086                           _TRISD 0088                 __end_of_du_lieu 0AF6  
              ??_keypad_scanner 0070          MFRC522_AntiColl@serNum 0037                           lenh@a 0071  
                         pclath 000A               _MFRC522_Clear_Bit 09D1                _check_dulieu_the 0A9A  
                         status 0003                           wtemp0 007E              ?_MFRC522_Clear_Bit 0079  
                 ?_lenh_doipass 0070               _MFRC522_AntennaOn 17F7                 __initialization 07E1  
                 ?_lenh_themthe 0070                    __end_of_main 0D9A                    __end_of_lenh 0AD4  
            ?_MFRC522_AntennaOn 0070                    __end_of_menu 0C0D             ??_MFRC522_Clear_Bit 007A  
             lenh_doipass@F1304 00A0       MFRC522_ReadCardSerial@str 0039                 MFRC522_Rd@value 0075  
__end_of_MFRC522_ReadCardSerial 0A9A                ??_MFRC522_ToCard 0024                          ??_main 005F  
                        ??_lenh 0070                          ??_menu 0075             ??_MFRC522_AntennaOn 007B  
               MFRC522_ToCard@i 002F                 MFRC522_ToCard@n 0031                ??_MFRC522_isCard 007D  
         MFRC522_ToCard@backLen 0023           lenh_mocua_quetthe@UID 0041                 MFRC522_Wr@value 0076  
     __end_of_MFRC522_Clear_Bit 09E3           MFRC522_ToCard@_status 002B           MFRC522_ToCard@command 002E  
                        _EEDATA 010C                          _EECON2 018D           MFRC522_ToCard@sendLen 0021  
         MFRC522_ToCard@waitIRq 002A                  ??_lenh_doipass 0078       __end_of_MFRC522_AntennaOn 1800  
                ??_lenh_themthe 003A                          ___bmul 0A08            __end_of_MFRC522_Init 0C54  
       MFRC522_AntiColl@_status 0035                __end_of_gui_Lenh 09C0       lenh_mocua_quetthe@TagType 0050  
                        _unlock 0D9A                       ??_du_lieu 0070           __end_of_Soft_SPI_Init 0993  
         __end_of_Soft_SPI_Read 0B1C       lenh_mocua_quetthe@address 004D         __end_of__initialization 07FC  
               writeEEPROM@DATA 0070          MFRC522_Request@TagType 007C                    ??_MFRC522_Rd 0073  
                  ??_MFRC522_Wr 0077              _MFRC522_AntennaOff 17EE           MFRC522_isCard@TagType 007D  
           ___bmul@multiplicand 0070                  __pcstackCOMMON 0070                    __pidataBANK0 097A  
                  __pidataBANK1 096E             ?_MFRC522_AntennaOff 0070          MFRC522_Request@_status 0033  
        MFRC522_Request@reqMode 0032        __end_of_MFRC522_AntiColl 0CFB               ??_MFRC522_Set_Bit 007A  
           Soft_SPI_Write@dato_ 0071              __end_of_MFRC522_Rd 0A4D              __end_of_MFRC522_Wr 0A34  
             ??_MFRC522_Request 007D            ??_MFRC522_AntennaOff 007C          check_dulieu_the@number 0073  
        MFRC522_ToCard@backData 0022           lenh_themthe@flagmksai 004D          lenh_mocua_quetthe@flag 003D  
        lenh_mocua_quetthe@tong 0056                      __pmaintext 0CFB                    ?_writeEEPROM 0070  
                       ?___bmul 0070                      _failunlock 0C54        __end_of_check_dulieu_the 0AB4  
        MFRC522_ToCard@lastBits 002C                         ?_unlock 0070            __end_of_lenh_doipass 05B4  
                    _chuoi_kytu 0B6D              _lenh_mocua_matkhau 0041          MFRC522_ToCard@sendData 0020  
          __end_of_lenh_themthe 07E1                   ?_taplenh_menu 0070              _lenh_mocua_quetthe 0F01  
                    __stringtab 0950             ?_lenh_mocua_matkhau 0070                       ?_gui_Lenh 0070  
             __end_of_clear_lcd 0041                      _readEEPROM 0993             ?_lenh_mocua_quetthe 0070  
                _Soft_SPI_Write 0B44            ??_lenh_mocua_matkhau 007B           __end_of_MFRC522_Reset 000C  
                       __ptext1 0E3F                         __ptext2 0B1C                         __ptext3 05B4  
                       __ptext4 0A9A                         __ptext5 0F01                         __ptext6 0A08  
                       __ptext7 09E3                         __ptext8 0B98                         __ptext9 0A80  
                       _du_lieu 0AD4            ??_lenh_mocua_quetthe 003A                  ??_taplenh_menu 005A  
                       main@nut 0062                    _MFRC522_Init 0C0D            end_of_initialization 07FC  
                    clear_lcd@a 0073                      ??_gui_Lenh 0070   MFRC522_ReadCardSerial@_status 0038  
        __end_of_Soft_SPI_Write 0B6D                     ?_failunlock 0070                         unlock@i 0079  
                       unlock@j 0078                    __pstringtext 0800                       _PORTAbits 0005  
                     _PORTDbits 0008                     ?_chuoi_kytu 0072                       _TRISCbits 0087  
          switch_press_scan@key 0072               readEEPROM@address 0070              Soft_SPI_Read@dato_ 0071  
                _khoi_taoKeypad 0962                     ?_readEEPROM 0070                 ?_Soft_SPI_Write 0070  
                __end_of___bmul 0A1D                 _MFRC522_Set_Bit 09A0         MFRC522_Request@backBits 0034  
           MFRC522_ToCard@irqEn 002D                 _MFRC522_Request 0B98                  __end_of_unlock 0E3F  
           start_initialization 07E1               ?_MFRC522_AntiColl 0070               MFRC522_AntiColl@i 0036  
        __end_of_khoi_taoKeypad 096E              ??_MFRC522_AntiColl 007C                    _lenh_doipass 03FD  
      ??_MFRC522_ReadCardSerial 007D                 taplenh_menu@nut 005D           lenh_doipass@flagmksai 0026  
          Soft_SPI_Write@cont_s 0072                   ??_lenh_xoathe 0075                        ??___bmul 0071  
                  _lenh_themthe 05B4                      init_fetch0 09F5                   ??_khoi_taoLCD 0072  
          __end_of_taplenh_menu 0F01                     __pdataBANK0 0063                     __pdataBANK1 00A0  
                      ??_unlock 0075               ?_check_dulieu_the 0070              ??_check_dulieu_the 0073  
                     ___latbits 0002                   __pcstackBANK0 0020                   lenh_doipass@a 0020  
                 lenh_doipass@i 002A                   lenh_doipass@j 0029                 ?_khoi_taoKeypad 0070  
                 taplenh_menu@a 005E         __end_of_MFRC522_Set_Bit 09B0         __end_of_MFRC522_Request 0BCB  
           MFRC522_Set_Bit@addr 007A                       _clear_lcd 000C             MFRC522_Set_Bit@mask 0079  
           lenh_doipass@nutnhan 0028                       __pstrings 0950                   lenh_themthe@a 003D  
                 lenh_themthe@h 0050                   lenh_themthe@i 0058                   lenh_themthe@j 0057  
           __end_of_lenh_xoathe 0B44                        ?_du_lieu 0070             __end_of_khoi_taoLCD 0A66  
                 _Soft_SPI_Init 0986                   _Soft_SPI_Read 0AF6                  _keypad_scanner 0141  
                      _PIR2bits 000D                      ?_clear_lcd 0070                    ??_failunlock 0075  
               lenh_themthe@UID 0043             lenh_mocua_matkhau@a 0020             lenh_mocua_matkhau@i 002A  
           lenh_mocua_matkhau@j 0029               _switch_press_scan 09C0                     __stringbase 0962  
            ?_switch_press_scan 0070                    ??_chuoi_kytu 0074                  ?_Soft_SPI_Init 0070  
                ?_Soft_SPI_Read 0070                  _MFRC522_ToCard 0297             ??_switch_press_scan 0072  
            __end_of_failunlock 0CA3                  _MFRC522_isCard 09E3          __end_of_keypad_scanner 0297  
                     gui_Lenh@a 0071                ??_Soft_SPI_Write 0070                    ??_readEEPROM 0070  
                    _EECON1bits 018C             lenh_mocua_quetthe@a 003F             lenh_mocua_quetthe@h 004B  
           lenh_mocua_quetthe@i 004E             lenh_mocua_quetthe@j 0054             lenh_mocua_quetthe@x 0052  
           lenh_mocua_quetthe@y 0053                ?_MFRC522_Set_Bit 0079           MFRC522_Clear_Bit@addr 007B  
              ?_MFRC522_Request 007C           MFRC522_Clear_Bit@mask 0079              __end_of_chuoi_kytu 0B98  
     __end_of_switch_press_scan 09D1                     _lenh_xoathe 0B1C             lenh_themthe@TagType 0051  
                   _khoi_taoLCD 0A4D              __end_of__stringtab 0962         lenh_mocua_matkhau@F1281 0063  
        __end_of_MFRC522_ToCard 03FD              __end_of_readEEPROM 09A0          _MFRC522_ReadCardSerial 0A80  
                      __ptext10 0CA3                        __ptext11 0297                        __ptext20 0BCB  
                      __ptext12 0041                        __ptext21 000C                        __ptext13 0D9A  
                      __ptext30 0003                        __ptext22 0B6D                        __ptext14 03FD  
                      __ptext31 17F7                        __ptext23 0AD4                        __ptext15 0A66  
                      __ptext32 09A0                        __ptext24 0A4D                        __ptext16 09C0  
                      __ptext33 17EE                        __ptext25 0AB4                        __ptext17 0141  
                      __ptext34 09D1                        __ptext26 09B0                        __ptext18 0993  
                      __ptext35 0A1D                        __ptext27 0962                        __ptext19 0C54  
                      __ptext36 0A34                        __ptext28 0986                        __ptext37 0B44  
                      __ptext29 0C0D                        __ptext38 0AF6          __end_of_MFRC522_isCard 09F5  
   MFRC522_AntiColl@serNumCheck 0032                    _taplenh_menu 0E3F                        _gui_Lenh 09B0  
               ?_keypad_scanner 0070             lenh_themthe@nutnhan 004F                      _MFRC522_Rd 0A34  
                    _MFRC522_Wr 0A1D                     ??_clear_lcd 0070                   ??_writeEEPROM 0071  
                      du_lieu@a 0071                   _MFRC522_Reset 0003                ??_khoi_taoKeypad 0070  
               ??_Soft_SPI_Init 0070                 ??_Soft_SPI_Read 0070                      _INTCONbits 000B  
               ?_MFRC522_ToCard 0020                        init_ram0 09F9                 ?_MFRC522_isCard 0070  
            lenh_themthe@number 0055                       stringcode 095A               lenh_themthe@F1288 00A6  
                ?_MFRC522_Reset 0070             __end_of_writeEEPROM 0A80               lenh_themthe@i_389 0053  
             lenh_themthe@j_393 0056                      _OPTION_REG 0081                        stringtab 0950  
    __end_of_MFRC522_AntennaOff 17F7                   ?_MFRC522_Init 0070       lenh_mocua_matkhau@nutnhan 0028  
                   ?_MFRC522_Rd 0070                     ?_MFRC522_Wr 0076  
